Archive member included to satisfy reference by file (symbol)

/home/chen_7109/am335x/gcc-linaro-5.3-2016.02-x86_64_arm-linux-gnueabihf/bin/../lib/gcc/arm-linux-gnueabihf/5.3.1/libgcc.a(_udivsi3.o)
                              arch/arm/cpu/armv7/built-in.o (__aeabi_uidiv)
/home/chen_7109/am335x/gcc-linaro-5.3-2016.02-x86_64_arm-linux-gnueabihf/bin/../lib/gcc/arm-linux-gnueabihf/5.3.1/libgcc.a(_divsi3.o)
                              cmd/built-in.o (__aeabi_idiv)
/home/chen_7109/am335x/gcc-linaro-5.3-2016.02-x86_64_arm-linux-gnueabihf/bin/../lib/gcc/arm-linux-gnueabihf/5.3.1/libgcc.a(_lshrdi3.o)
                              drivers/mtd/built-in.o (__aeabi_llsr)
/home/chen_7109/am335x/gcc-linaro-5.3-2016.02-x86_64_arm-linux-gnueabihf/bin/../lib/gcc/arm-linux-gnueabihf/5.3.1/libgcc.a(_ashldi3.o)
                              drivers/mmc/built-in.o (__aeabi_llsl)
/home/chen_7109/am335x/gcc-linaro-5.3-2016.02-x86_64_arm-linux-gnueabihf/bin/../lib/gcc/arm-linux-gnueabihf/5.3.1/libgcc.a(_dvmd_lnx.o)
                              /home/chen_7109/am335x/gcc-linaro-5.3-2016.02-x86_64_arm-linux-gnueabihf/bin/../lib/gcc/arm-linux-gnueabihf/5.3.1/libgcc.a(_udivsi3.o) (__aeabi_idiv0)

Discarded input sections

 .data          0x0000000000000000        0x0 arch/arm/cpu/armv7/start.o
 .bss           0x0000000000000000        0x0 arch/arm/cpu/armv7/start.o
 .text          0x0000000000000000        0x0 board/vscom/baltos/built-in.o
 .data          0x0000000000000000        0x0 board/vscom/baltos/built-in.o
 .bss           0x0000000000000000        0x0 board/vscom/baltos/built-in.o
 .text.mmu_page_table_flush
                0x0000000000000000       0x1e arch/arm/cpu/armv7/built-in.o
 .text.v7_arch_cp15_set_l2aux_ctrl
                0x0000000000000000        0x6 arch/arm/cpu/armv7/built-in.o
 .text.v7_arch_cp15_set_acr
                0x0000000000000000        0x6 arch/arm/cpu/armv7/built-in.o
 .text.sdelay   0x0000000000000000        0x6 arch/arm/cpu/armv7/built-in.o
 .text.wait_on_value
                0x0000000000000000       0x1a arch/arm/cpu/armv7/built-in.o
 .text.warm_reset
                0x0000000000000000       0x18 arch/arm/cpu/armv7/built-in.o
 .text.setup_warmreset_time
                0x0000000000000000        0x2 arch/arm/cpu/armv7/built-in.o
 .text.do_cancel_out
                0x0000000000000000       0x44 arch/arm/cpu/armv7/built-in.o
 .text.cancel_out
                0x0000000000000000       0x62 arch/arm/cpu/armv7/built-in.o
 .text.omap_die_id
                0x0000000000000000        0xc arch/arm/cpu/armv7/built-in.o
 .text.omap_die_id_serial
                0x0000000000000000       0x4c arch/arm/cpu/armv7/built-in.o
 .text.omap_die_id_get_board_serial
                0x0000000000000000       0x24 arch/arm/cpu/armv7/built-in.o
 .text.omap_die_id_usbethaddr
                0x0000000000000000       0x58 arch/arm/cpu/armv7/built-in.o
 .text.omap_die_id_display
                0x0000000000000000       0x2c arch/arm/cpu/armv7/built-in.o
 .text.omap_sys_boot_device
                0x0000000000000000        0x4 arch/arm/cpu/armv7/built-in.o
 .text.save_omap_boot_params
                0x0000000000000000       0x78 arch/arm/cpu/armv7/built-in.o
 .text.enable_gpmc_cs_config
                0x0000000000000000       0x4c arch/arm/cpu/armv7/built-in.o
 .text.gpmc_init
                0x0000000000000000       0x38 arch/arm/cpu/armv7/built-in.o
 .text.get_dpll_mpu_params
                0x0000000000000000        0x8 arch/arm/cpu/armv7/built-in.o
 .text.get_dpll_core_params
                0x0000000000000000        0x8 arch/arm/cpu/armv7/built-in.o
 .text.get_dpll_per_params
                0x0000000000000000        0x8 arch/arm/cpu/armv7/built-in.o
 .text.setup_clocks_for_console
                0x0000000000000000       0x78 arch/arm/cpu/armv7/built-in.o
 .text.enable_basic_clocks
                0x0000000000000000       0x40 arch/arm/cpu/armv7/built-in.o
 .text.do_setup_dpll
                0x0000000000000000       0xc4 arch/arm/cpu/armv7/built-in.o
 .text.do_enable_clocks
                0x0000000000000000       0x60 arch/arm/cpu/armv7/built-in.o
 .text.do_disable_clocks
                0x0000000000000000       0x68 arch/arm/cpu/armv7/built-in.o
 .text.scale_vcores
                0x0000000000000000        0x2 arch/arm/cpu/armv7/built-in.o
 .text.prcm_init
                0x0000000000000000       0x60 arch/arm/cpu/armv7/built-in.o
 .text.rtc_only_prcm_init
                0x0000000000000000       0x1c arch/arm/cpu/armv7/built-in.o
 .text.get_cpu_rev
                0x0000000000000000        0xc arch/arm/cpu/armv7/built-in.o
 .text.get_sysboot_value
                0x0000000000000000       0x10 arch/arm/cpu/armv7/built-in.o
 .text.am335x_get_efuse_mpu_max_freq
                0x0000000000000000       0x70 arch/arm/cpu/armv7/built-in.o
 .text.am335x_get_tps65910_mpu_vdd
                0x0000000000000000       0x2a arch/arm/cpu/armv7/built-in.o
 .text.configure_mr
                0x0000000000000000       0x64 arch/arm/cpu/armv7/built-in.o
 .text.config_sdram_emif4d5
                0x0000000000000000       0xf0 arch/arm/cpu/armv7/built-in.o
 .text.config_sdram
                0x0000000000000000       0x54 arch/arm/cpu/armv7/built-in.o
 .text.set_sdram_timings
                0x0000000000000000       0x24 arch/arm/cpu/armv7/built-in.o
 .text.config_ddr_phy
                0x0000000000000000      0x110 arch/arm/cpu/armv7/built-in.o
 .text.config_cmd_ctrl
                0x0000000000000000       0x2c arch/arm/cpu/armv7/built-in.o
 .text.config_ddr_data
                0x0000000000000000       0x34 arch/arm/cpu/armv7/built-in.o
 .text.config_io_ctrl
                0x0000000000000000       0x20 arch/arm/cpu/armv7/built-in.o
 .text.configure_module_pin_mux
                0x0000000000000000       0x20 arch/arm/cpu/armv7/built-in.o
 .rodata        0x0000000000000000       0x84 arch/arm/cpu/armv7/built-in.o
 .rodata.dpll_ddr_regs
                0x0000000000000000       0x24 arch/arm/cpu/armv7/built-in.o
 .rodata.dpll_mpu
                0x0000000000000000       0x10 arch/arm/cpu/armv7/built-in.o
 .rodata.dpll_per_regs
                0x0000000000000000       0x24 arch/arm/cpu/armv7/built-in.o
 .rodata.cmdpll
                0x0000000000000000        0x4 arch/arm/cpu/armv7/built-in.o
 .rodata.cmwkup
                0x0000000000000000        0x4 arch/arm/cpu/armv7/built-in.o
 .rodata.dpll_core_opp100
                0x0000000000000000       0x10 arch/arm/cpu/armv7/built-in.o
 .rodata.dpll_core_regs
                0x0000000000000000       0x24 arch/arm/cpu/armv7/built-in.o
 .rodata.dpll_core
                0x0000000000000000       0x10 arch/arm/cpu/armv7/built-in.o
 .rodata.dpll_per
                0x0000000000000000       0x10 arch/arm/cpu/armv7/built-in.o
 .rodata.dpll_mpu_regs
                0x0000000000000000       0x24 arch/arm/cpu/armv7/built-in.o
 .rodata.cmper  0x0000000000000000        0x4 arch/arm/cpu/armv7/built-in.o
 .rodata.cmrtc  0x0000000000000000        0x4 arch/arm/cpu/armv7/built-in.o
 .rodata.ddr_data_reg
                0x0000000000000000        0x8 arch/arm/cpu/armv7/built-in.o
 .rodata.ddr_cmd_reg
                0x0000000000000000        0x8 arch/arm/cpu/armv7/built-in.o
 .rodata.emif_reg
                0x0000000000000000        0x8 arch/arm/cpu/armv7/built-in.o
 .data          0x0000000000000000        0x0 arch/arm/cpu/armv7/built-in.o
 .data.dpll_mpu_opp100
                0x0000000000000000       0x10 arch/arm/cpu/armv7/built-in.o
 .bss           0x0000000000000000        0x0 arch/arm/cpu/armv7/built-in.o
 .bss.gpmc_cfg  0x0000000000000000        0x4 arch/arm/cpu/armv7/built-in.o
 .text.enable_caches
                0x0000000000000000        0xc arch/arm/lib/built-in.o
 .text.invalidate_dcache_range
                0x0000000000000000        0x2 arch/arm/lib/built-in.o
 .text.flush_dcache_range
                0x0000000000000000        0x2 arch/arm/lib/built-in.o
 .text.flush_dcache_all
                0x0000000000000000        0xa arch/arm/lib/built-in.o
 .text.invalidate_l2_cache
                0x0000000000000000        0x8 arch/arm/lib/built-in.o
 .text.arm_init_before_mmu
                0x0000000000000000        0x2 arch/arm/lib/built-in.o
 .text.arm_init_domains
                0x0000000000000000        0x2 arch/arm/lib/built-in.o
 .text.mmu_page_table_flush
                0x0000000000000000        0x2 arch/arm/lib/built-in.o
 .text.mmu_set_region_dcache_behaviour
                0x0000000000000000       0x36 arch/arm/lib/built-in.o
 .text.dram_bank_mmu_setup
                0x0000000000000000       0x2a arch/arm/lib/built-in.o
 .text.icache_status
                0x0000000000000000        0xa arch/arm/lib/built-in.o
 .data          0x0000000000000000        0x0 arch/arm/lib/built-in.o
 .__secure_end  0x0000000000000000        0x0 arch/arm/lib/built-in.o
 .__secure_start
                0x0000000000000000        0x0 arch/arm/lib/built-in.o
 .bss           0x0000000000000000        0x0 arch/arm/lib/built-in.o
 .text          0x0000000000000000        0x0 cmd/built-in.o
 .text.bootz_setup
                0x0000000000000000       0x14 cmd/built-in.o
 .text.eeprom_init
                0x0000000000000000        0x2 cmd/built-in.o
 .text.name_to_gpio
                0x0000000000000000        0x8 cmd/built-in.o
 .data          0x0000000000000000        0x0 cmd/built-in.o
 .bss           0x0000000000000000        0x0 cmd/built-in.o
 .text          0x0000000000000000        0x0 common/built-in.o
 .text.hash_progressive_lookup_algo
                0x0000000000000000       0x40 common/built-in.o
 .text.hash_parse_string
                0x0000000000000000       0x3a common/built-in.o
 .text.hash_block
                0x0000000000000000       0x38 common/built-in.o
 .text.unset_local_var
                0x0000000000000000       0x60 common/built-in.o
 .text.red_led_off
                0x0000000000000000        0x2 common/built-in.o
 .text.green_led_on
                0x0000000000000000        0x2 common/built-in.o
 .text.green_led_off
                0x0000000000000000        0x2 common/built-in.o
 .text.yellow_led_on
                0x0000000000000000        0x2 common/built-in.o
 .text.yellow_led_off
                0x0000000000000000        0x2 common/built-in.o
 .text.blue_led_on
                0x0000000000000000        0x2 common/built-in.o
 .text.blue_led_off
                0x0000000000000000        0x2 common/built-in.o
 .text.dram_init_banksize
                0x0000000000000000       0x18 common/built-in.o
 .text.arch_reserve_stacks
                0x0000000000000000        0x4 common/built-in.o
 .text.board_flash_wp_on
                0x0000000000000000        0x4 common/built-in.o
 .text.fixup_cpu
                0x0000000000000000        0x4 common/built-in.o
 .text.env_flags_parse_varaccess_from_binflags
                0x0000000000000000       0x30 common/built-in.o
 .text.of_bus_default_map
                0x0000000000000000       0xa6 common/built-in.o
 .text.fdt_read_prop
                0x0000000000000000       0x3c common/built-in.o
 .text.of_bus_default_count_cells
                0x0000000000000000       0x34 common/built-in.o
 .text.of_bus_default_translate
                0x0000000000000000       0x7c common/built-in.o
 .text.fdt_getprop_u32_default_node
                0x0000000000000000       0x24 common/built-in.o
 .text.fdt_getprop_u32_default
                0x0000000000000000       0x24 common/built-in.o
 .text.do_fixup_by_path_u32
                0x0000000000000000       0x1a common/built-in.o
 .text.do_fixup_by_prop
                0x0000000000000000       0x5e common/built-in.o
 .text.do_fixup_by_prop_u32
                0x0000000000000000       0x24 common/built-in.o
 .text.do_fixup_by_compat
                0x0000000000000000       0x50 common/built-in.o
 .text.do_fixup_by_compat_u32
                0x0000000000000000       0x1a common/built-in.o
 .text.fdt_increase_size
                0x0000000000000000        0xc common/built-in.o
 .text.fdt_del_node_and_alias
                0x0000000000000000       0x30 common/built-in.o
 .text.fdt_translate_address
                0x0000000000000000      0x190 common/built-in.o
 .text.fdt_node_offset_by_compat_reg
                0x0000000000000000       0x5c common/built-in.o
 .text.fdt_alloc_phandle
                0x0000000000000000       0x36 common/built-in.o
 .text.fdt_set_phandle
                0x0000000000000000       0x40 common/built-in.o
 .text.fdt_create_phandle
                0x0000000000000000       0x40 common/built-in.o
 .text.fdt_set_node_status
                0x0000000000000000       0x90 common/built-in.o
 .text.fdt_set_status_by_alias
                0x0000000000000000       0x1c common/built-in.o
 .text.fdt_verify_alias_address
                0x0000000000000000       0x8c common/built-in.o
 .text.fdt_get_base_address
                0x0000000000000000       0x34 common/built-in.o
 .text.fdt_read_range
                0x0000000000000000       0xd0 common/built-in.o
 .text.fdt_setup_simplefb_node
                0x0000000000000000      0x160 common/built-in.o
 .text.fdt_fixup_display
                0x0000000000000000       0x88 common/built-in.o
 .text.legacy_miiphy_read
                0x0000000000000000       0x22 common/built-in.o
 .text.legacy_miiphy_write
                0x0000000000000000       0x16 common/built-in.o
 .text.miiphy_register
                0x0000000000000000       0xc8 common/built-in.o
 .text.mdio_free
                0x0000000000000000        0x4 common/built-in.o
 .text.mdio_unregister
                0x0000000000000000       0x24 common/built-in.o
 .text.usb_detect_change
                0x0000000000000000       0x4c common/built-in.o
 .text.usb_submit_int_msg
                0x0000000000000000        0x4 common/built-in.o
 .text.usb_set_protocol
                0x0000000000000000       0x2e common/built-in.o
 .text.usb_set_idle
                0x0000000000000000       0x32 common/built-in.o
 .text.usb_get_report
                0x0000000000000000       0x3a common/built-in.o
 .text.usb_get_class_descriptor
                0x0000000000000000       0x3a common/built-in.o
 .text.usb_stor_reset
                0x0000000000000000        0xc common/built-in.o
 .text.splash_screen_prepare
                0x0000000000000000        0x4 common/built-in.o
 .text.menu_default_choice
                0x0000000000000000       0x12 common/built-in.o
 .text.env_import
                0x0000000000000000       0x94 common/built-in.o
 .text.env_export
                0x0000000000000000       0x68 common/built-in.o
 .text.serial_printf
                0x0000000000000000       0x30 common/built-in.o
 .text.fputc    0x0000000000000000       0x14 common/built-in.o
 .text.fputs    0x0000000000000000       0x14 common/built-in.o
 .text.fprintf  0x0000000000000000       0x34 common/built-in.o
 .text.confirm_yesno
                0x0000000000000000       0x84 common/built-in.o
 .text.disable_ctrlc
                0x0000000000000000       0x10 common/built-in.o
 .text.stdio_print_current_devices
                0x0000000000000000       0x78 common/built-in.o
 .text.valloc   0x0000000000000000        0xa common/built-in.o
 .text.pvalloc  0x0000000000000000       0x14 common/built-in.o
 .text.cfree    0x0000000000000000        0x4 common/built-in.o
 .text.malloc_usable_size
                0x0000000000000000       0x2a common/built-in.o
 .text.mallopt  0x0000000000000000       0x30 common/built-in.o
 .text.memalign_simple
                0x0000000000000000       0x32 common/built-in.o
 .text.genimg_get_short_name
                0x0000000000000000       0x14 common/built-in.o
 .text.genimg_get_type_short_name
                0x0000000000000000        0xc common/built-in.o
 .text.genimg_get_comp_short_name
                0x0000000000000000        0xc common/built-in.o
 .text.genimg_get_os_short_name
                0x0000000000000000        0xc common/built-in.o
 .text.genimg_get_arch_short_name
                0x0000000000000000        0xc common/built-in.o
 .text.arch_fixup_fdt
                0x0000000000000000        0x4 common/built-in.o
 .text.fit_get_subimage_count
                0x0000000000000000       0x30 common/built-in.o
 .text.fit_get_timestamp
                0x0000000000000000       0x30 common/built-in.o
 .text.fit_set_timestamp
                0x0000000000000000       0x54 common/built-in.o
 .text.fit_conf_find_compat
                0x0000000000000000       0xf0 common/built-in.o
 .text.stdio_init
                0x0000000000000000        0xe common/built-in.o
 .text.cli_simple_parse_line
                0x0000000000000000       0x54 common/built-in.o
 .text.cli_simple_run_command
                0x0000000000000000       0xc4 common/built-in.o
 .text.cli_simple_loop
                0x0000000000000000       0x58 common/built-in.o
 .text.cli_simple_run_command_list
                0x0000000000000000       0x3a common/built-in.o
 .text.run_command_repeatable
                0x0000000000000000       0x12 common/built-in.o
 .rodata.__FUNCTION__.9041
                0x0000000000000000       0x17 common/built-in.o
 .rodata.__FUNCTION__.9589
                0x0000000000000000       0x10 common/built-in.o
 .rodata.__func__.8138
                0x0000000000000000        0xb common/built-in.o
 .rodata.__func__.8145
                0x0000000000000000        0xb common/built-in.o
 .data          0x0000000000000000        0x0 common/built-in.o
 .data.of_busses
                0x0000000000000000       0x14 common/built-in.o
 .bss           0x0000000000000000        0x0 common/built-in.o
 .bss.env_ptr   0x0000000000000000        0x4 common/built-in.o
 .bss.save_addr
                0x0000000000000000        0x4 common/built-in.o
 .bss.save_size
                0x0000000000000000        0x4 common/built-in.o
 .bss.lastcommand.8019
                0x0000000000000000      0x201 common/built-in.o
 .text          0x0000000000000000        0x0 disk/built-in.o
 .text.part_get_info_efi_by_name
                0x0000000000000000       0x3c disk/built-in.o
 .text.is_valid_gpt_buf
                0x0000000000000000       0x4e disk/built-in.o
 .text.write_mbr_and_gpt_partitions
                0x0000000000000000      0x310 disk/built-in.o
 .rodata.__func__.8234
                0x0000000000000000       0x1d disk/built-in.o
 .data          0x0000000000000000        0x0 disk/built-in.o
 .bss           0x0000000000000000        0x0 disk/built-in.o
 .text          0x0000000000000000        0x0 drivers/built-in.o
 .text._device_find_global_by_of_offset
                0x0000000000000000       0x2c drivers/built-in.o
 .text.dev_get_parent_platdata
                0x0000000000000000       0x20 drivers/built-in.o
 .text.dev_get_uclass_platdata
                0x0000000000000000       0x20 drivers/built-in.o
 .text.dev_get_parent_priv
                0x0000000000000000       0x20 drivers/built-in.o
 .text.device_get_child
                0x0000000000000000       0x32 drivers/built-in.o
 .text.device_find_child_by_seq
                0x0000000000000000       0x36 drivers/built-in.o
 .text.device_get_child_by_seq
                0x0000000000000000       0x38 drivers/built-in.o
 .text.device_find_child_by_of_offset
                0x0000000000000000       0x2a drivers/built-in.o
 .text.device_get_child_by_of_offset
                0x0000000000000000       0x20 drivers/built-in.o
 .text.device_get_global_by_of_offset
                0x0000000000000000       0x26 drivers/built-in.o
 .text.device_find_first_child
                0x0000000000000000       0x14 drivers/built-in.o
 .text.device_find_next_child
                0x0000000000000000       0x16 drivers/built-in.o
 .text.dev_get_parent
                0x0000000000000000        0x4 drivers/built-in.o
 .text.dev_get_driver_data
                0x0000000000000000        0x4 drivers/built-in.o
 .text.dev_get_driver_ops
                0x0000000000000000        0x8 drivers/built-in.o
 .text.device_get_uclass_id
                0x0000000000000000        0x8 drivers/built-in.o
 .text.dev_get_uclass_name
                0x0000000000000000        0xa drivers/built-in.o
 .text.dev_get_addr_index
                0x0000000000000000        0x6 drivers/built-in.o
 .text.dev_get_addr_name
                0x0000000000000000        0x6 drivers/built-in.o
 .text.dev_get_addr_ptr
                0x0000000000000000        0x6 drivers/built-in.o
 .text.dev_map_physmem
                0x0000000000000000        0x6 drivers/built-in.o
 .text.device_has_children
                0x0000000000000000        0xe drivers/built-in.o
 .text.device_has_active_children
                0x0000000000000000       0x22 drivers/built-in.o
 .text.device_is_last_sibling
                0x0000000000000000       0x14 drivers/built-in.o
 .text.device_set_name
                0x0000000000000000       0x18 drivers/built-in.o
 .text.of_device_is_compatible
                0x0000000000000000       0x18 drivers/built-in.o
 .text.of_machine_is_compatible
                0x0000000000000000       0x18 drivers/built-in.o
 .text.device_bind_driver_to_node
                0x0000000000000000       0x2c drivers/built-in.o
 .text.device_bind_driver
                0x0000000000000000       0x12 drivers/built-in.o
 .text.dm_get_translation_offset
                0x0000000000000000        0xe drivers/built-in.o
 .text.dm_set_translation_offset
                0x0000000000000000       0x10 drivers/built-in.o
 .text.dm_uninit
                0x0000000000000000       0x16 drivers/built-in.o
 .text.uclass_destroy
                0x0000000000000000       0x50 drivers/built-in.o
 .text.uclass_find_device_by_name
                0x0000000000000000       0x50 drivers/built-in.o
 .text.uclass_find_device_by_of_offset
                0x0000000000000000       0x40 drivers/built-in.o
 .text.uclass_get_device_by_name
                0x0000000000000000       0x1c drivers/built-in.o
 .text.uclass_get_device_by_of_offset
                0x0000000000000000       0x1c drivers/built-in.o
 .text.uclass_first_device_err
                0x0000000000000000       0x18 drivers/built-in.o
 .text.dm_dbg   0x0000000000000000       0x1a drivers/built-in.o
 .text.list_count_items
                0x0000000000000000       0x12 drivers/built-in.o
 .text.device_unbind
                0x0000000000000000       0xaa drivers/built-in.o
 .text.scsi_get_device
                0x0000000000000000       0x54 drivers/built-in.o
 .text.scsi_init
                0x0000000000000000       0x38 drivers/built-in.o
 .text.rsa_mod_exp
                0x0000000000000000       0x18 drivers/built-in.o
 .text.misc_read
                0x0000000000000000       0x18 drivers/built-in.o
 .text.misc_write
                0x0000000000000000       0x18 drivers/built-in.o
 .text.misc_ioctl
                0x0000000000000000       0x10 drivers/built-in.o
 .text.hw_watchdog_disable
                0x0000000000000000       0x20 drivers/built-in.o
 .text._input_send_keycodes
                0x0000000000000000      0x2ac drivers/built-in.o
 .text.input_tstc
                0x0000000000000000       0x28 drivers/built-in.o
 .text.input_getc
                0x0000000000000000       0x34 drivers/built-in.o
 .text.input_send_keycodes
                0x0000000000000000        0x6 drivers/built-in.o
 .text.input_add_keycode
                0x0000000000000000       0x54 drivers/built-in.o
 .text.input_add_table
                0x0000000000000000       0x28 drivers/built-in.o
 .text.input_set_delays
                0x0000000000000000        0xa drivers/built-in.o
 .text.input_allow_repeats
                0x0000000000000000        0x6 drivers/built-in.o
 .text.input_leds_changed
                0x0000000000000000        0xe drivers/built-in.o
 .text.input_add_tables
                0x0000000000000000       0x54 drivers/built-in.o
 .text.input_init
                0x0000000000000000       0x14 drivers/built-in.o
 .text.input_stdio_register
                0x0000000000000000       0x34 drivers/built-in.o
 .rodata.__func__.9434
                0x0000000000000000       0x18 drivers/built-in.o
 .rodata.__func__.9438
                0x0000000000000000       0x18 drivers/built-in.o
 .rodata.__func__.9450
                0x0000000000000000       0x14 drivers/built-in.o
 .rodata.__func__.9172
                0x0000000000000000       0x10 drivers/built-in.o
 .rodata.__func__.9178
                0x0000000000000000        0xa drivers/built-in.o
 .rodata.kbd_to_ansi364
                0x0000000000000000       0x20 drivers/built-in.o
 .rodata.kbd_plain_xlate
                0x0000000000000000       0x64 drivers/built-in.o
 .rodata.kbd_plain_xlate_german
                0x0000000000000000       0x84 drivers/built-in.o
 .rodata.CSWTCH.32
                0x0000000000000000        0xd drivers/built-in.o
 .data          0x0000000000000000        0x0 drivers/built-in.o
 .data.kbd_ctrl_xlate
                0x0000000000000000       0x64 drivers/built-in.o
 .data.kbd_right_alt_xlate_german
                0x0000000000000000       0x58 drivers/built-in.o
 .data.kbd_shift_xlate_german
                0x0000000000000000       0x84 drivers/built-in.o
 .data.kbd_entry
                0x0000000000000000       0x8c drivers/built-in.o
 .data.kbd_shift_xlate
                0x0000000000000000       0x64 drivers/built-in.o
 .bss           0x0000000000000000        0x0 drivers/built-in.o
 .text          0x0000000000000000        0x0 drivers/gpio/built-in.o
 .text.dm_gpio_requestf
                0x0000000000000000       0x2a drivers/gpio/built-in.o
 .text.gpio_requestf
                0x0000000000000000       0x2a drivers/gpio/built-in.o
 .text.dm_gpio_set_value
                0x0000000000000000       0x30 drivers/gpio/built-in.o
 .text.dm_gpio_set_dir_flags
                0x0000000000000000       0x54 drivers/gpio/built-in.o
 .text._gpio_request_by_name_nodev
                0x0000000000000000       0xa8 drivers/gpio/built-in.o
 .text.dm_gpio_set_dir
                0x0000000000000000        0x6 drivers/gpio/built-in.o
 .text.gpio_set_value
                0x0000000000000000       0x18 drivers/gpio/built-in.o
 .text.gpio_claim_vector
                0x0000000000000000       0x58 drivers/gpio/built-in.o
 .text.gpio_get_values_as_int
                0x0000000000000000       0x2c drivers/gpio/built-in.o
 .text.dm_gpio_get_values_as_int
                0x0000000000000000       0x32 drivers/gpio/built-in.o
 .text.gpio_request_by_name_nodev
                0x0000000000000000       0x1c drivers/gpio/built-in.o
 .text.gpio_request_by_name
                0x0000000000000000       0x1c drivers/gpio/built-in.o
 .text.gpio_get_list_count
                0x0000000000000000       0x28 drivers/gpio/built-in.o
 .text.dm_gpio_free
                0x0000000000000000        0xa drivers/gpio/built-in.o
 .text.gpio_free_list
                0x0000000000000000       0x28 drivers/gpio/built-in.o
 .text.gpio_free_list_nodev
                0x0000000000000000        0xa drivers/gpio/built-in.o
 .text.gpio_request_list_by_name_nodev
                0x0000000000000000       0x52 drivers/gpio/built-in.o
 .text.gpio_request_list_by_name
                0x0000000000000000       0x1c drivers/gpio/built-in.o
 .text.gpio_get_number
                0x0000000000000000       0x14 drivers/gpio/built-in.o
 .text.gpio_is_valid
                0x0000000000000000        0xa drivers/gpio/built-in.o
 .data          0x0000000000000000        0x0 drivers/gpio/built-in.o
 .bss           0x0000000000000000        0x0 drivers/gpio/built-in.o
 .text          0x0000000000000000        0x0 drivers/i2c/built-in.o
 .text.i2c_reloc_fixup
                0x0000000000000000        0x2 drivers/i2c/built-in.o
 .text.i2c_init_board
                0x0000000000000000        0x2 drivers/i2c/built-in.o
 .text.i2c_reg_read
                0x0000000000000000       0x18 drivers/i2c/built-in.o
 .text.i2c_reg_write
                0x0000000000000000       0x16 drivers/i2c/built-in.o
 .data          0x0000000000000000        0x0 drivers/i2c/built-in.o
 .bss           0x0000000000000000        0x0 drivers/i2c/built-in.o
 .text          0x0000000000000000        0x0 drivers/mmc/built-in.o
 .text.mmc_send_tuning
                0x0000000000000000       0x80 drivers/mmc/built-in.o
 .text.mmc_register
                0x0000000000000000       0x18 drivers/mmc/built-in.o
 .text.mmc_destroy
                0x0000000000000000        0x4 drivers/mmc/built-in.o
 .text.cpu_mmc_init
                0x0000000000000000        0x6 drivers/mmc/built-in.o
 .text.mmc_set_preinit
                0x0000000000000000        0x6 drivers/mmc/built-in.o
 .rodata.tuning_blk_pattern_4bit
                0x0000000000000000       0x40 drivers/mmc/built-in.o
 .rodata.tuning_blk_pattern_8bit
                0x0000000000000000       0x80 drivers/mmc/built-in.o
 .rodata.__func__.9683
                0x0000000000000000        0xd drivers/mmc/built-in.o
 .data          0x0000000000000000        0x0 drivers/mmc/built-in.o
 .bss           0x0000000000000000        0x0 drivers/mmc/built-in.o
 .text          0x0000000000000000        0x0 drivers/mtd/built-in.o
 .text.idr_remove
                0x0000000000000000        0xe drivers/mtd/built-in.o
 .text.idr_find
                0x0000000000000000        0xe drivers/mtd/built-in.o
 .text.idr_alloc
                0x0000000000000000       0x26 drivers/mtd/built-in.o
 .text.mtd_get_unmapped_area
                0x0000000000000000       0x48 drivers/mtd/built-in.o
 .text.mtd_panic_write
                0x0000000000000000       0x6a drivers/mtd/built-in.o
 .text.mtd_read_oob
                0x0000000000000000       0x36 drivers/mtd/built-in.o
 .text.mtd_get_fact_prot_info
                0x0000000000000000       0x1a drivers/mtd/built-in.o
 .text.mtd_read_fact_prot_reg
                0x0000000000000000       0x22 drivers/mtd/built-in.o
 .text.mtd_get_user_prot_info
                0x0000000000000000       0x1a drivers/mtd/built-in.o
 .text.mtd_read_user_prot_reg
                0x0000000000000000       0x22 drivers/mtd/built-in.o
 .text.mtd_write_user_prot_reg
                0x0000000000000000       0x36 drivers/mtd/built-in.o
 .text.mtd_lock_user_prot_reg
                0x0000000000000000       0x1e drivers/mtd/built-in.o
 .text.mtd_lock
                0x0000000000000000       0x50 drivers/mtd/built-in.o
 .text.mtd_is_locked
                0x0000000000000000       0x50 drivers/mtd/built-in.o
 .text.mtd_block_isreserved
                0x0000000000000000       0x2c drivers/mtd/built-in.o
 .text.mtd_arg_off
                0x0000000000000000       0xac drivers/mtd/built-in.o
 .text.mtd_arg_off_size
                0x0000000000000000       0xc4 drivers/mtd/built-in.o
 .data          0x0000000000000000        0x0 drivers/mtd/built-in.o
 .bss           0x0000000000000000        0x0 drivers/mtd/built-in.o
 .bss.mtd_table
                0x0000000000000000       0x80 drivers/mtd/built-in.o
 .text          0x0000000000000000        0x0 drivers/mtd/ubi/built-in.o
 .text.ubi_enumerate_volumes
                0x0000000000000000       0x28 drivers/mtd/ubi/built-in.o
 .text.ubi_get_by_major
                0x0000000000000000       0x28 drivers/mtd/ubi/built-in.o
 .text.ubi_major2num
                0x0000000000000000       0x20 drivers/mtd/ubi/built-in.o
 .text.ubi_vtbl_rename_volumes
                0x0000000000000000       0xa4 drivers/mtd/ubi/built-in.o
 .text.ubi_remove_volume
                0x0000000000000000       0xa2 drivers/mtd/ubi/built-in.o
 .text.ubi_rename_volumes
                0x0000000000000000       0x6a drivers/mtd/ubi/built-in.o
 .text.ubi_start_leb_change
                0x0000000000000000       0x96 drivers/mtd/ubi/built-in.o
 .text.ubi_more_leb_change_data
                0x0000000000000000       0xda drivers/mtd/ubi/built-in.o
 .text.ubi_leb_write
                0x0000000000000000       0x80 drivers/mtd/ubi/built-in.o
 .text.ubi_leb_change
                0x0000000000000000       0x6e drivers/mtd/ubi/built-in.o
 .text.ubi_leb_erase
                0x0000000000000000       0x52 drivers/mtd/ubi/built-in.o
 .text.ubi_leb_map
                0x0000000000000000       0x5a drivers/mtd/ubi/built-in.o
 .text.ubi_sync
                0x0000000000000000       0x26 drivers/mtd/ubi/built-in.o
 .text.ubi_flush
                0x0000000000000000       0x28 drivers/mtd/ubi/built-in.o
 .text.ubi_next_sqnum
                0x0000000000000000       0x14 drivers/mtd/ubi/built-in.o
 .text.self_check_eba
                0x0000000000000000      0x16a drivers/mtd/ubi/built-in.o
 .text.ubi_thread
                0x0000000000000000       0x80 drivers/mtd/ubi/built-in.o
 .text.ubi_dump_mkvol_req
                0x0000000000000000       0x14 drivers/mtd/ubi/built-in.o
 .data          0x0000000000000000        0x0 drivers/mtd/ubi/built-in.o
 .bss           0x0000000000000000        0x0 drivers/mtd/ubi/built-in.o
 .text          0x0000000000000000        0x0 drivers/net/built-in.o
 .text.cpsw_am33xx_cm_get_macid.isra.0
                0x0000000000000000       0x84 drivers/net/built-in.o
 .text.davinci_emac_3517_get_macid.isra.1
                0x0000000000000000       0x84 drivers/net/built-in.o
 .text.ti_cm_get_macid
                0x0000000000000000       0x9c drivers/net/built-in.o
 .rodata.__func__.9266
                0x0000000000000000       0x19 drivers/net/built-in.o
 .rodata.__func__.9248
                0x0000000000000000       0x1c drivers/net/built-in.o
 .data          0x0000000000000000        0x0 drivers/net/built-in.o
 .bss           0x0000000000000000        0x0 drivers/net/built-in.o
 .text          0x0000000000000000        0x0 drivers/net/phy/built-in.o
 .text.phy_set_supported
                0x0000000000000000       0x3c drivers/net/phy/built-in.o
 .text.miiphy_reset
                0x0000000000000000       0x1a drivers/net/phy/built-in.o
 .text.phy_shutdown
                0x0000000000000000        0xe drivers/net/phy/built-in.o
 .text.phy_get_interface_by_name
                0x0000000000000000       0x28 drivers/net/phy/built-in.o
 .rodata.phy_interface_strings
                0x0000000000000000       0x38 drivers/net/phy/built-in.o
 .data          0x0000000000000000        0x0 drivers/net/phy/built-in.o
 .bss           0x0000000000000000        0x0 drivers/net/phy/built-in.o
 .text          0x0000000000000000        0x0 drivers/power/pmic/built-in.o
 .text.tps65910_set_i2c_control
                0x0000000000000000       0x36 drivers/power/pmic/built-in.o
 .text.tps65910_voltage_update
                0x0000000000000000       0x94 drivers/power/pmic/built-in.o
 .data          0x0000000000000000        0x0 drivers/power/pmic/built-in.o
 .bss           0x0000000000000000        0x0 drivers/power/pmic/built-in.o
 .comment       0x0000000000000000       0x2e drivers/power/pmic/built-in.o
 .note.GNU-stack
                0x0000000000000000        0x0 drivers/power/pmic/built-in.o
 .ARM.attributes
                0x0000000000000000       0x2d drivers/power/pmic/built-in.o
 .debug_aranges
                0x0000000000000000       0x28 drivers/power/pmic/built-in.o
 .debug_info    0x0000000000000000      0x55b drivers/power/pmic/built-in.o
 .debug_abbrev  0x0000000000000000      0x177 drivers/power/pmic/built-in.o
 .debug_line    0x0000000000000000      0x131 drivers/power/pmic/built-in.o
 .debug_frame   0x0000000000000000       0x4c drivers/power/pmic/built-in.o
 .debug_str     0x0000000000000000      0x50d drivers/power/pmic/built-in.o
 .debug_loc     0x0000000000000000       0x94 drivers/power/pmic/built-in.o
 .debug_ranges  0x0000000000000000       0x18 drivers/power/pmic/built-in.o
 .text          0x0000000000000000        0x0 drivers/serial/built-in.o
 .text.ns16550_calc_divisor
                0x0000000000000000       0x10 drivers/serial/built-in.o
 .text.NS16550_reinit
                0x0000000000000000       0x38 drivers/serial/built-in.o
 .text.NS16550_putc
                0x0000000000000000       0x2a drivers/serial/built-in.o
 .text.NS16550_getc
                0x0000000000000000       0x22 drivers/serial/built-in.o
 .text.NS16550_tstc
                0x0000000000000000       0x10 drivers/serial/built-in.o
 .data          0x0000000000000000        0x0 drivers/serial/built-in.o
 .bss           0x0000000000000000        0x0 drivers/serial/built-in.o
 .text          0x0000000000000000        0x0 drivers/spi/built-in.o
 .text.spi_set_wordlen
                0x0000000000000000       0x20 drivers/spi/built-in.o
 .text.spi_do_alloc_slave
                0x0000000000000000       0x30 drivers/spi/built-in.o
 .text.omap3_spi_write_chconf
                0x0000000000000000       0x18 drivers/spi/built-in.o
 .text._omap3_spi_set_speed
                0x0000000000000000       0x3c drivers/spi/built-in.o
 .text._omap3_spi_set_mode
                0x0000000000000000       0x4e drivers/spi/built-in.o
 .text.spi_init
                0x0000000000000000        0x2 drivers/spi/built-in.o
 .text.spi_free_slave
                0x0000000000000000        0x4 drivers/spi/built-in.o
 .text.spi_claim_bus
                0x0000000000000000       0x60 drivers/spi/built-in.o
 .text.spi_release_bus
                0x0000000000000000       0x16 drivers/spi/built-in.o
 .text.spi_setup_slave
                0x0000000000000000       0x9c drivers/spi/built-in.o
 .text.spi_xfer
                0x0000000000000000      0x368 drivers/spi/built-in.o
 .rodata.str1.1
                0x0000000000000000      0x175 drivers/spi/built-in.o
 .data          0x0000000000000000        0x0 drivers/spi/built-in.o
 .bss           0x0000000000000000        0x0 drivers/spi/built-in.o
 .comment       0x0000000000000000       0x5c drivers/spi/built-in.o
 .note.GNU-stack
                0x0000000000000000        0x0 drivers/spi/built-in.o
 .ARM.attributes
                0x0000000000000000       0x2d drivers/spi/built-in.o
 .debug_aranges
                0x0000000000000000       0x88 drivers/spi/built-in.o
 .debug_info    0x0000000000000000     0x2375 drivers/spi/built-in.o
 .debug_abbrev  0x0000000000000000      0x5b9 drivers/spi/built-in.o
 .debug_line    0x0000000000000000      0x412 drivers/spi/built-in.o
 .debug_frame   0x0000000000000000      0x130 drivers/spi/built-in.o
 .debug_str     0x0000000000000000     0x1312 drivers/spi/built-in.o
 .debug_loc     0x0000000000000000      0xfa1 drivers/spi/built-in.o
 .debug_ranges  0x0000000000000000      0x188 drivers/spi/built-in.o
 .text          0x0000000000000000        0x0 drivers/usb/gadget/built-in.o
 .text.count_configs
                0x0000000000000000       0x46 drivers/usb/gadget/built-in.o
 .text.collect_langs
                0x0000000000000000       0x2a drivers/usb/gadget/built-in.o
 .text.composite_setup_complete
                0x0000000000000000        0x2 drivers/usb/gadget/built-in.o
 .text.composite_suspend
                0x0000000000000000       0x40 drivers/usb/gadget/built-in.o
 .text.composite_resume
                0x0000000000000000       0x40 drivers/usb/gadget/built-in.o
 .text.g_dnl_unbind
                0x0000000000000000       0x12 drivers/usb/gadget/built-in.o
 .text.lookup_string
                0x0000000000000000       0x2a drivers/usb/gadget/built-in.o
 .text.composite_unbind
                0x0000000000000000       0xb4 drivers/usb/gadget/built-in.o
 .text.composite_bind
                0x0000000000000000       0xac drivers/usb/gadget/built-in.o
 .text.g_dnl_do_config
                0x0000000000000000       0x3c drivers/usb/gadget/built-in.o
 .text.reset_config.isra.0
                0x0000000000000000       0x2c drivers/usb/gadget/built-in.o
 .text.composite_disconnect
                0x0000000000000000       0x28 drivers/usb/gadget/built-in.o
 .text.composite_setup
                0x0000000000000000      0x54c drivers/usb/gadget/built-in.o
 .text.usb_add_function
                0x0000000000000000       0x74 drivers/usb/gadget/built-in.o
 .text.usb_function_deactivate
                0x0000000000000000       0x28 drivers/usb/gadget/built-in.o
 .text.usb_function_activate
                0x0000000000000000       0x2a drivers/usb/gadget/built-in.o
 .text.usb_interface_id
                0x0000000000000000       0x20 drivers/usb/gadget/built-in.o
 .text.usb_add_config
                0x0000000000000000       0x74 drivers/usb/gadget/built-in.o
 .text.usb_string_id
                0x0000000000000000       0x1a drivers/usb/gadget/built-in.o
 .text.usb_string_ids_tab
                0x0000000000000000       0x28 drivers/usb/gadget/built-in.o
 .text.usb_string_ids_n
                0x0000000000000000       0x1c drivers/usb/gadget/built-in.o
 .text.usb_composite_register
                0x0000000000000000       0x3c drivers/usb/gadget/built-in.o
 .text.usb_composite_unregister
                0x0000000000000000       0x20 drivers/usb/gadget/built-in.o
 .text.g_dnl_set_serialnumber
                0x0000000000000000       0x34 drivers/usb/gadget/built-in.o
 .text.board_usb_init
                0x0000000000000000        0x4 drivers/usb/gadget/built-in.o
 .text.board_usb_cleanup
                0x0000000000000000        0x4 drivers/usb/gadget/built-in.o
 .text.g_dnl_bind_fixup
                0x0000000000000000        0x4 drivers/usb/gadget/built-in.o
 .text.g_dnl_get_board_bcd_device_number
                0x0000000000000000        0x2 drivers/usb/gadget/built-in.o
 .text.g_dnl_bind
                0x0000000000000000       0xe0 drivers/usb/gadget/built-in.o
 .text.g_dnl_board_usb_cable_connected
                0x0000000000000000        0x6 drivers/usb/gadget/built-in.o
 .text.g_dnl_detach
                0x0000000000000000        0xc drivers/usb/gadget/built-in.o
 .text.g_dnl_trigger_detach
                0x0000000000000000        0xc drivers/usb/gadget/built-in.o
 .text.g_dnl_clear_detach
                0x0000000000000000        0xc drivers/usb/gadget/built-in.o
 .text.g_dnl_register
                0x0000000000000000       0x2c drivers/usb/gadget/built-in.o
 .text.g_dnl_unregister
                0x0000000000000000        0xc drivers/usb/gadget/built-in.o
 .rodata.manufacturer
                0x0000000000000000       0x12 drivers/usb/gadget/built-in.o
 .rodata.__FUNCTION__.10954
                0x0000000000000000       0x11 drivers/usb/gadget/built-in.o
 .rodata.product
                0x0000000000000000       0x14 drivers/usb/gadget/built-in.o
 .rodata.__func__.11091
                0x0000000000000000        0xf drivers/usb/gadget/built-in.o
 .data          0x0000000000000000        0x0 drivers/usb/gadget/built-in.o
 .data.g_dnl_string_tab
                0x0000000000000000        0x8 drivers/usb/gadget/built-in.o
 .data.g_dnl_composite_strings
                0x0000000000000000        0x8 drivers/usb/gadget/built-in.o
 .data.g_dnl_driver
                0x0000000000000000       0x20 drivers/usb/gadget/built-in.o
 .data.composite_driver
                0x0000000000000000       0x24 drivers/usb/gadget/built-in.o
 .data.g_dnl_string_defs
                0x0000000000000000       0x20 drivers/usb/gadget/built-in.o
 .bss           0x0000000000000000        0x0 drivers/usb/gadget/built-in.o
 .bss.g_dnl_detach_request
                0x0000000000000000        0x1 drivers/usb/gadget/built-in.o
 .bss.g_dnl_serial
                0x0000000000000000       0x20 drivers/usb/gadget/built-in.o
 .bss.composite
                0x0000000000000000        0x4 drivers/usb/gadget/built-in.o
 .text          0x0000000000000000        0x0 drivers/usb/musb-new/built-in.o
 .text.musb_gadget_cleanup
                0x0000000000000000        0x2 drivers/usb/musb-new/built-in.o
 .text.musb_g_resume
                0x0000000000000000        0x2 drivers/usb/musb-new/built-in.o
 .text.musb_g_suspend
                0x0000000000000000        0x2 drivers/usb/musb-new/built-in.o
 .text.musb_g_wakeup
                0x0000000000000000        0x2 drivers/usb/musb-new/built-in.o
 .text.musb_g_disconnect
                0x0000000000000000       0x38 drivers/usb/musb-new/built-in.o
 .text.musb_g_reset
                0x0000000000000000       0x72 drivers/usb/musb-new/built-in.o
 .text.create_int_queue
                0x0000000000000000       0xa8 drivers/usb/musb-new/built-in.o
 .text.poll_int_queue
                0x0000000000000000       0x28 drivers/usb/musb-new/built-in.o
 .text.destroy_int_queue
                0x0000000000000000       0x48 drivers/usb/musb-new/built-in.o
 .data          0x0000000000000000        0x0 drivers/usb/musb-new/built-in.o
 .bss           0x0000000000000000        0x0 drivers/usb/musb-new/built-in.o
 .text          0x0000000000000000        0x0 fs/built-in.o
 .text.fs_uuid  0x0000000000000000       0x1c fs/built-in.o
 .text.do_fs_uuid
                0x0000000000000000       0x58 fs/built-in.o
 .text.print_revoke_blks
                0x0000000000000000       0x38 fs/built-in.o
 .text.fat_register_device
                0x0000000000000000       0x54 fs/built-in.o
 .text.file_fat_read
                0x0000000000000000       0x22 fs/built-in.o
 .text.file_getfsname
                0x0000000000000000       0x10 fs/built-in.o
 .text.file_cd  0x0000000000000000      0x118 fs/built-in.o
 .text.file_detectfs
                0x0000000000000000       0x2c fs/built-in.o
 .text.file_ls  0x0000000000000000       0x5c fs/built-in.o
 .text.file_read
                0x0000000000000000       0x64 fs/built-in.o
 .text.ubifs_leb_write
                0x0000000000000000       0x32 fs/built-in.o
 .text.ubifs_leb_change
                0x0000000000000000       0x2c fs/built-in.o
 .text.ubifs_leb_map
                0x0000000000000000       0x2c fs/built-in.o
 .text.ubifs_prepare_node
                0x0000000000000000       0xc6 fs/built-in.o
 .text.ubifs_prep_grp_node
                0x0000000000000000       0xaa fs/built-in.o
 .text.ubifs_wbuf_sync_nolock
                0x0000000000000000       0xac fs/built-in.o
 .text.ubifs_wbuf_add_ino_nolock
                0x0000000000000000       0x18 fs/built-in.o
 .text.ubifs_sync_wbufs_by_inode
                0x0000000000000000       0x4c fs/built-in.o
 .text.set_anon_super
                0x0000000000000000        0x4 fs/built-in.o
 .text.iget_failed
                0x0000000000000000        0x2 fs/built-in.o
 .text.unlock_new_inode
                0x0000000000000000        0x2 fs/built-in.o
 .text.fixup_leb
                0x0000000000000000       0x3e fs/built-in.o
 .text.ubifs_write_sb_node
                0x0000000000000000       0x2a fs/built-in.o
 .text.ubifs_fixup_free_space
                0x0000000000000000      0x156 fs/built-in.o
 .text.pack_bits
                0x0000000000000000       0x74 fs/built-in.o
 .text.scan_get_pnode
                0x0000000000000000       0xe8 fs/built-in.o
 .text.ubifs_pack_pnode
                0x0000000000000000       0xa0 fs/built-in.o
 .text.ubifs_pack_nnode
                0x0000000000000000       0x98 fs/built-in.o
 .text.ubifs_pack_ltab
                0x0000000000000000       0x7e fs/built-in.o
 .text.ubifs_pack_lsave
                0x0000000000000000       0x6a fs/built-in.o
 .text.ubifs_create_dflt_lpt
                0x0000000000000000      0x5be fs/built-in.o
 .text.scan_get_nnode
                0x0000000000000000       0xa8 fs/built-in.o
 .text.ubifs_lpt_lookup
                0x0000000000000000       0x6c fs/built-in.o
 .text.ubifs_lpt_scan_nolock
                0x0000000000000000      0x222 fs/built-in.o
 .text.dbg_check_lpt_nodes
                0x0000000000000000        0x4 fs/built-in.o
 .text.first_dirty_cnode
                0x0000000000000000       0x24 fs/built-in.o
 .text.alloc_lpt_leb
                0x0000000000000000       0xa0 fs/built-in.o
 .text.need_write_all
                0x0000000000000000       0x76 fs/built-in.o
 .text.lpt_tgc_start
                0x0000000000000000       0x50 fs/built-in.o
 .text.pnode_lookup
                0x0000000000000000       0x58 fs/built-in.o
 .text.do_make_pnode_dirty
                0x0000000000000000       0x76 fs/built-in.o
 .text.lpt_gc   0x0000000000000000      0x2ee fs/built-in.o
 .text.ubifs_lpt_start_commit
                0x0000000000000000      0x5c2 fs/built-in.o
 .text.ubifs_lpt_post_commit
                0x0000000000000000       0x62 fs/built-in.o
 .text.ubifs_ensure_cat
                0x0000000000000000       0x3a fs/built-in.o
 .text.ubifs_get_lp_stats
                0x0000000000000000        0xe fs/built-in.o
 .text.ubifs_read_one_lp
                0x0000000000000000       0x1c fs/built-in.o
 .text.ubifs_fast_find_free
                0x0000000000000000       0x12 fs/built-in.o
 .text.ubifs_fast_find_empty
                0x0000000000000000       0x14 fs/built-in.o
 .text.ubifs_fast_find_freeable
                0x0000000000000000       0x14 fs/built-in.o
 .text.ubifs_fast_find_frdi_idx
                0x0000000000000000       0x14 fs/built-in.o
 .text.dbg_check_cats
                0x0000000000000000        0x4 fs/built-in.o
 .text.dbg_check_heap
                0x0000000000000000        0x2 fs/built-in.o
 .text.dbg_check_lprops
                0x0000000000000000        0x4 fs/built-in.o
 .text.left_znode
                0x0000000000000000       0x3e fs/built-in.o
 .text.lookup_znode
                0x0000000000000000      0x1ae fs/built-in.o
 .text.ubifs_tnc_get_bu_keys
                0x0000000000000000      0x190 fs/built-in.o
 .text.ubifs_tnc_bulk_read
                0x0000000000000000      0x132 fs/built-in.o
 .text.ubifs_tnc_lookup_nm
                0x0000000000000000       0x7e fs/built-in.o
 .text.ubifs_tnc_replace
                0x0000000000000000      0x1c4 fs/built-in.o
 .text.is_idx_node_in_tnc
                0x0000000000000000       0x22 fs/built-in.o
 .text.ubifs_tnc_has_node
                0x0000000000000000      0x10c fs/built-in.o
 .text.ubifs_dirty_idx_node
                0x0000000000000000       0x2a fs/built-in.o
 .text.dbg_check_inode_size
                0x0000000000000000        0x4 fs/built-in.o
 .text.ubifs_tnc_levelorder_next
                0x0000000000000000       0xca fs/built-in.o
 .text.dump_znode
                0x0000000000000000        0x4 fs/built-in.o
 .text.dbg_snprintf_key
                0x0000000000000000       0x9c fs/built-in.o
 .text.dbg_ntype
                0x0000000000000000       0x18 fs/built-in.o
 .text.dbg_cstate
                0x0000000000000000       0x18 fs/built-in.o
 .text.dbg_jhead
                0x0000000000000000       0x18 fs/built-in.o
 .text.ubifs_dump_budget_req
                0x0000000000000000        0x2 fs/built-in.o
 .text.ubifs_dump_lstats
                0x0000000000000000        0x2 fs/built-in.o
 .text.ubifs_dump_budg
                0x0000000000000000        0x2 fs/built-in.o
 .text.ubifs_dump_lprop
                0x0000000000000000       0x26 fs/built-in.o
 .text.ubifs_dump_lprops
                0x0000000000000000       0x34 fs/built-in.o
 .text.ubifs_dump_lpt_info
                0x0000000000000000        0x2 fs/built-in.o
 .text.ubifs_dump_sleb
                0x0000000000000000        0xe fs/built-in.o
 .text.ubifs_dump_leb
                0x0000000000000000       0x4a fs/built-in.o
 .text.ubifs_dump_heap
                0x0000000000000000        0x2 fs/built-in.o
 .text.ubifs_dump_tnc
                0x0000000000000000       0x16 fs/built-in.o
 .text.dbg_walk_index
                0x0000000000000000       0xe6 fs/built-in.o
 .text.ubifs_dump_index
                0x0000000000000000       0x10 fs/built-in.o
 .text.add_node
                0x0000000000000000       0x86 fs/built-in.o
 .text.destroy_done_tree
                0x0000000000000000       0x1e fs/built-in.o
 .text.ubifs_add_bud_to_log
                0x0000000000000000      0x1de fs/built-in.o
 .text.ubifs_log_start_commit
                0x0000000000000000      0x1ec fs/built-in.o
 .text.ubifs_log_end_commit
                0x0000000000000000       0x22 fs/built-in.o
 .text.ubifs_log_post_commit
                0x0000000000000000       0x74 fs/built-in.o
 .text.ubifs_consolidate_log
                0x0000000000000000      0x1bc fs/built-in.o
 .text.ubifs_add_orphan
                0x0000000000000000       0xb4 fs/built-in.o
 .text.ubifs_delete_orphan
                0x0000000000000000       0x88 fs/built-in.o
 .text.ubifs_orphan_start_commit
                0x0000000000000000       0x5c fs/built-in.o
 .text.ubifs_orphan_end_commit
                0x0000000000000000      0x290 fs/built-in.o
 .text.recover_head
                0x0000000000000000       0x7a fs/built-in.o
 .text.ubifs_write_rcvrd_mst_node
                0x0000000000000000      0x126 fs/built-in.o
 .text.ubifs_recover_inl_heads
                0x0000000000000000       0x2c fs/built-in.o
 .text.ubifs_clean_lebs
                0x0000000000000000      0x11c fs/built-in.o
 .text.ubifs_rcvry_gc_commit
                0x0000000000000000        0x4 fs/built-in.o
 .rodata.filesystems
                0x0000000000000000       0x18 fs/built-in.o
 .rodata.CSWTCH.37
                0x0000000000000000       0x14 fs/built-in.o
 .rodata.CSWTCH.44
                0x0000000000000000       0x18 fs/built-in.o
 .rodata.CSWTCH.46
                0x0000000000000000        0xc fs/built-in.o
 .rodata.CSWTCH.42
                0x0000000000000000       0x30 fs/built-in.o
 .data          0x0000000000000000        0x0 fs/built-in.o
 .data.file_cwd
                0x0000000000000000      0x200 fs/built-in.o
 .data.current_filesystem
                0x0000000000000000        0x4 fs/built-in.o
 .bss           0x0000000000000000        0x0 fs/built-in.o
 .bss.ext4fs_symlinknest
                0x0000000000000000        0x4 fs/built-in.o
 .text          0x0000000000000000        0x0 lib/built-in.o
 .text.invalidate_icache_all
                0x0000000000000000        0x2 lib/built-in.o
 .text.inflateInit_
                0x0000000000000000        0xa lib/built-in.o
 .text.fdt_get_phandle
                0x0000000000000000       0x40 lib/built-in.o
 .text.fdt_get_alias
                0x0000000000000000       0x1a lib/built-in.o
 .text.fdt_get_path
                0x0000000000000000       0xba lib/built-in.o
 .text.fdt_parent_offset
                0x0000000000000000       0x20 lib/built-in.o
 .text.fdt_node_offset_by_prop_value
                0x0000000000000000       0x50 lib/built-in.o
 .text.fdt_node_offset_by_phandle
                0x0000000000000000       0x40 lib/built-in.o
 .text.fdt_stringlist_contains
                0x0000000000000000       0x48 lib/built-in.o
 .text.fdt_count_strings
                0x0000000000000000       0x34 lib/built-in.o
 .text.fdt_find_string
                0x0000000000000000       0x56 lib/built-in.o
 .text.fdt_get_string
                0x0000000000000000       0x10 lib/built-in.o
 .text.fdt_node_check_compatible
                0x0000000000000000       0x28 lib/built-in.o
 .text.fdt_node_offset_by_compatible
                0x0000000000000000       0x36 lib/built-in.o
 .text.fdt_set_name
                0x0000000000000000       0x52 lib/built-in.o
 .text.fdt_appendprop
                0x0000000000000000       0x7c lib/built-in.o
 .text.fdt_pack
                0x0000000000000000       0x34 lib/built-in.o
 .text.fdt_remove_unused_strings
                0x0000000000000000       0x6a lib/built-in.o
 .text._fdt_sw_check_header
                0x0000000000000000       0x14 lib/built-in.o
 .text._fdt_grab_space
                0x0000000000000000       0x30 lib/built-in.o
 .text.fdt_create
                0x0000000000000000       0x40 lib/built-in.o
 .text.fdt_resize
                0x0000000000000000       0x72 lib/built-in.o
 .text.fdt_add_reservemap_entry
                0x0000000000000000       0x60 lib/built-in.o
 .text.fdt_finish_reservemap
                0x0000000000000000       0x14 lib/built-in.o
 .text.fdt_begin_node
                0x0000000000000000       0x42 lib/built-in.o
 .text.fdt_end_node
                0x0000000000000000       0x26 lib/built-in.o
 .text.fdt_property_placeholder
                0x0000000000000000       0xa8 lib/built-in.o
 .text.fdt_property
                0x0000000000000000       0x22 lib/built-in.o
 .text.fdt_finish
                0x0000000000000000       0x90 lib/built-in.o
 .text.fdt_setprop_inplace
                0x0000000000000000       0x2a lib/built-in.o
 .text.fdt_nop_property
                0x0000000000000000       0x2a lib/built-in.o
 .text.fdt_nop_node
                0x0000000000000000       0x32 lib/built-in.o
 .text.fdt_find_regions
                0x0000000000000000      0x21e lib/built-in.o
 .text.fdt_create_empty_tree
                0x0000000000000000       0x44 lib/built-in.o
 .text.fdt_add_region
                0x0000000000000000       0x58 lib/built-in.o
 .text.fdt_add_alias_regions
                0x0000000000000000      0x10c lib/built-in.o
 .text.fdt_next_region
                0x0000000000000000      0x35c lib/built-in.o
 .text.fdt_first_region
                0x0000000000000000       0x3a lib/built-in.o
 .text.crc7     0x0000000000000000       0x1c lib/built-in.o
 .text.crc8     0x0000000000000000       0x32 lib/built-in.o
 .text.fdtdec_get_int
                0x0000000000000000       0x1e lib/built-in.o
 .text.fdtdec_get_uint
                0x0000000000000000       0x1e lib/built-in.o
 .text.lmb_dump_all
                0x0000000000000000        0x2 lib/built-in.o
 .text.lmb_is_reserved
                0x0000000000000000       0x28 lib/built-in.o
 .text.arch_lmb_reserve
                0x0000000000000000        0x2 lib/built-in.o
 .text.ldiv     0x0000000000000000       0x2e lib/built-in.o
 .text.byteReverse
                0x0000000000000000        0x2 lib/built-in.o
 .text.md5      0x0000000000000000       0x44 lib/built-in.o
 .text.rc4_encode
                0x0000000000000000       0x8a lib/built-in.o
 .text.sha1_csum
                0x0000000000000000       0x24 lib/built-in.o
 .text.sha1_hmac
                0x0000000000000000       0xb6 lib/built-in.o
 .text.sha1_self_test
                0x0000000000000000        0x4 lib/built-in.o
 .text.strmhz   0x0000000000000000       0x48 lib/built-in.o
 .text.__rb_erase_color
                0x0000000000000000      0x17a lib/built-in.o
 .text.__rb_insert_augmented
                0x0000000000000000       0xd2 lib/built-in.o
 .text.rb_prev  0x0000000000000000       0x30 lib/built-in.o
 .text.rb_replace_node
                0x0000000000000000       0x3c lib/built-in.o
 .text.print_freq
                0x0000000000000000      0x120 lib/built-in.o
 .text.membuff_purge
                0x0000000000000000        0x8 lib/built-in.o
 .text.membuff_putraw
                0x0000000000000000       0x70 lib/built-in.o
 .text.membuff_putbyte
                0x0000000000000000       0x1c lib/built-in.o
 .text.membuff_getraw
                0x0000000000000000       0x52 lib/built-in.o
 .text.membuff_getbyte
                0x0000000000000000       0x24 lib/built-in.o
 .text.membuff_peekbyte
                0x0000000000000000       0x22 lib/built-in.o
 .text.membuff_get
                0x0000000000000000       0x44 lib/built-in.o
 .text.membuff_put
                0x0000000000000000       0x3a lib/built-in.o
 .text.membuff_isempty
                0x0000000000000000        0xc lib/built-in.o
 .text.membuff_avail
                0x0000000000000000       0x34 lib/built-in.o
 .text.membuff_size
                0x0000000000000000        0x6 lib/built-in.o
 .text.membuff_makecontig
                0x0000000000000000       0x44 lib/built-in.o
 .text.membuff_free
                0x0000000000000000       0x1a lib/built-in.o
 .text.membuff_readline
                0x0000000000000000       0x6e lib/built-in.o
 .text.membuff_extend_by
                0x0000000000000000       0x78 lib/built-in.o
 .text.membuff_init
                0x0000000000000000        0xc lib/built-in.o
 .text.membuff_new
                0x0000000000000000       0x22 lib/built-in.o
 .text.membuff_uninit
                0x0000000000000000        0xc lib/built-in.o
 .text.membuff_dispose
                0x0000000000000000       0x14 lib/built-in.o
 .text.strswab  0x0000000000000000       0x26 lib/built-in.o
 .text.bcopy    0x0000000000000000       0x1a lib/built-in.o
 .text.memscan  0x0000000000000000       0x16 lib/built-in.o
 .text.memchr_inv
                0x0000000000000000       0xac lib/built-in.o
 .text.get_ticks
                0x0000000000000000       0x32 lib/built-in.o
 .text.timer_init
                0x0000000000000000        0x4 lib/built-in.o
 .text.get_timer
                0x0000000000000000       0x10 lib/built-in.o
 .text.__udelay
                0x0000000000000000       0x74 lib/built-in.o
 .text.vsnprintf
                0x0000000000000000        0x4 lib/built-in.o
 .text.scnprintf
                0x0000000000000000       0x1a lib/built-in.o
 .text.__assert_fail
                0x0000000000000000       0x10 lib/built-in.o
 .text.print_grouped_ull
                0x0000000000000000       0x5c lib/built-in.o
 .text.str2off  0x0000000000000000       0x24 lib/built-in.o
 .text.str2long
                0x0000000000000000       0x22 lib/built-in.o
 .rodata.z_errmsg
                0x0000000000000000       0x28 lib/built-in.o
 .rodata.crc7_syndrome_table
                0x0000000000000000      0x100 lib/built-in.o
 .rodata.names.8068
                0x0000000000000000        0x3 lib/built-in.o
 .data          0x0000000000000000        0x0 lib/built-in.o
 .data.cur      0x0000000000000000        0x4 lib/built-in.o
 .data.current  0x0000000000000000        0x4 lib/built-in.o
 .bss           0x0000000000000000        0x0 lib/built-in.o
 .text          0x0000000000000000        0x0 net/built-in.o
 .text.add_ip_checksums
                0x0000000000000000       0x2a net/built-in.o
 .text.eth_is_active
                0x0000000000000000        0xc net/built-in.o
 .text.net_get_udp_handler
                0x0000000000000000        0xc net/built-in.o
 .text.net_set_arp_handler
                0x0000000000000000       0x18 net/built-in.o
 .text.random_port
                0x0000000000000000       0x12 net/built-in.o
 .text.vlan_to_string
                0x0000000000000000       0x34 net/built-in.o
 .text.getenv_vlan
                0x0000000000000000        0xe net/built-in.o
 .data          0x0000000000000000        0x0 net/built-in.o
 .data.tftp_timeout_ms
                0x0000000000000000        0x4 net/built-in.o
 .bss           0x0000000000000000        0x0 net/built-in.o
 .bss.net_busy_flag
                0x0000000000000000        0x4 net/built-in.o
 .text          0x0000000000000000        0x0 test/dm/built-in.o
 .data          0x0000000000000000        0x0 test/dm/built-in.o
 .bss           0x0000000000000000        0x0 test/dm/built-in.o
 .text          0x0000000000000000        0x0 arch/arm/lib/eabi_compat.o
 .data          0x0000000000000000        0x0 arch/arm/lib/eabi_compat.o
 .bss           0x0000000000000000        0x0 arch/arm/lib/eabi_compat.o
 .text.__aeabi_unwind_cpp_pr0
                0x0000000000000000        0x2 arch/arm/lib/eabi_compat.o
 .text.__aeabi_unwind_cpp_pr1
                0x0000000000000000        0x2 arch/arm/lib/eabi_compat.o
 .text.__aeabi_memcpy
                0x0000000000000000        0x4 arch/arm/lib/eabi_compat.o
 .text.__aeabi_memset
                0x0000000000000000        0xa arch/arm/lib/eabi_compat.o
 .data          0x0000000000000000        0x0 /home/chen_7109/am335x/gcc-linaro-5.3-2016.02-x86_64_arm-linux-gnueabihf/bin/../lib/gcc/arm-linux-gnueabihf/5.3.1/libgcc.a(_udivsi3.o)
 .bss           0x0000000000000000        0x0 /home/chen_7109/am335x/gcc-linaro-5.3-2016.02-x86_64_arm-linux-gnueabihf/bin/../lib/gcc/arm-linux-gnueabihf/5.3.1/libgcc.a(_udivsi3.o)
 .data          0x0000000000000000        0x0 /home/chen_7109/am335x/gcc-linaro-5.3-2016.02-x86_64_arm-linux-gnueabihf/bin/../lib/gcc/arm-linux-gnueabihf/5.3.1/libgcc.a(_divsi3.o)
 .bss           0x0000000000000000        0x0 /home/chen_7109/am335x/gcc-linaro-5.3-2016.02-x86_64_arm-linux-gnueabihf/bin/../lib/gcc/arm-linux-gnueabihf/5.3.1/libgcc.a(_divsi3.o)
 .data          0x0000000000000000        0x0 /home/chen_7109/am335x/gcc-linaro-5.3-2016.02-x86_64_arm-linux-gnueabihf/bin/../lib/gcc/arm-linux-gnueabihf/5.3.1/libgcc.a(_lshrdi3.o)
 .bss           0x0000000000000000        0x0 /home/chen_7109/am335x/gcc-linaro-5.3-2016.02-x86_64_arm-linux-gnueabihf/bin/../lib/gcc/arm-linux-gnueabihf/5.3.1/libgcc.a(_lshrdi3.o)
 .data          0x0000000000000000        0x0 /home/chen_7109/am335x/gcc-linaro-5.3-2016.02-x86_64_arm-linux-gnueabihf/bin/../lib/gcc/arm-linux-gnueabihf/5.3.1/libgcc.a(_ashldi3.o)
 .bss           0x0000000000000000        0x0 /home/chen_7109/am335x/gcc-linaro-5.3-2016.02-x86_64_arm-linux-gnueabihf/bin/../lib/gcc/arm-linux-gnueabihf/5.3.1/libgcc.a(_ashldi3.o)
 .data          0x0000000000000000        0x0 /home/chen_7109/am335x/gcc-linaro-5.3-2016.02-x86_64_arm-linux-gnueabihf/bin/../lib/gcc/arm-linux-gnueabihf/5.3.1/libgcc.a(_dvmd_lnx.o)
 .bss           0x0000000000000000        0x0 /home/chen_7109/am335x/gcc-linaro-5.3-2016.02-x86_64_arm-linux-gnueabihf/bin/../lib/gcc/arm-linux-gnueabihf/5.3.1/libgcc.a(_dvmd_lnx.o)

Memory Configuration

Name             Origin             Length             Attributes
*default*        0x0000000000000000 0xffffffffffffffff

Linker script and memory map

Address of section .text set to 0x80800000
                0x0000000000000000                . = 0x0
                0x0000000000000000                . = ALIGN (0x4)

.text           0x0000000080800000    0x42ffc
 *(.__image_copy_start)
 .__image_copy_start
                0x0000000080800000        0x0 arch/arm/lib/built-in.o
                0x0000000080800000                __image_copy_start
 *(.vectors)
 .vectors       0x0000000080800000      0x300 arch/arm/lib/built-in.o
                0x0000000080800000                _start
                0x0000000080800020                _undefined_instruction
                0x0000000080800024                _software_interrupt
                0x0000000080800028                _prefetch_abort
                0x000000008080002c                _data_abort
                0x0000000080800030                _not_used
                0x0000000080800034                _irq
                0x0000000080800038                _fiq
                0x0000000080800040                IRQ_STACK_START_IN
 arch/arm/cpu/armv7/start.o(.text*)
 .text          0x0000000080800300       0xa4 arch/arm/cpu/armv7/start.o
                0x0000000080800300                reset
                0x0000000080800304                save_boot_params_ret
                0x0000000080800338                c_runtime_cpu_setup
                0x000000008080034c                cpu_init_cp15
 board/vscom/baltos/built-in.o(.text*)
 .text.cpsw_control
                0x00000000808003a4        0x2 board/vscom/baltos/built-in.o
 *fill*         0x00000000808003a6        0x2 
 .text.board_init
                0x00000000808003a8       0x18 board/vscom/baltos/built-in.o
                0x00000000808003a8                board_init
 .text.ft_board_setup
                0x00000000808003c0      0x17c board/vscom/baltos/built-in.o
                0x00000000808003c0                ft_board_setup
 .text.board_late_init
                0x000000008080053c        0x4 board/vscom/baltos/built-in.o
                0x000000008080053c                board_late_init
 .text.board_eth_init
                0x0000000080800540      0x11c board/vscom/baltos/built-in.o
                0x0000000080800540                board_eth_init
 *(.text*)
 .text          0x000000008080065c      0x184 arch/arm/cpu/armv7/built-in.o
                0x000000008080065c                __v7_flush_dcache_all
                0x00000000808006f8                v7_flush_dcache_all
                0x0000000080800708                __v7_invalidate_dcache_all
                0x00000000808007a4                v7_invalidate_dcache_all
                0x00000000808007b4                save_boot_params
                0x00000000808007c0                omap_smc1
 .text.invalidate_icache_all
                0x00000000808007e0       0x14 arch/arm/cpu/armv7/built-in.o
                0x00000000808007e0                invalidate_icache_all
 .text.v7_outer_cache_enable
                0x00000000808007f4        0x2 arch/arm/cpu/armv7/built-in.o
                0x00000000808007f4                v7_outer_cache_enable
 .text.v7_outer_cache_disable
                0x00000000808007f6        0x2 arch/arm/cpu/armv7/built-in.o
                0x00000000808007f6                v7_outer_cache_disable
 .text.v7_outer_cache_flush_all
                0x00000000808007f8        0x2 arch/arm/cpu/armv7/built-in.o
                0x00000000808007f8                v7_outer_cache_flush_all
 .text.flush_dcache_all
                0x00000000808007fa        0xe arch/arm/cpu/armv7/built-in.o
                0x00000000808007fa                flush_dcache_all
 .text.v7_outer_cache_inval_all
                0x0000000080800808        0x2 arch/arm/cpu/armv7/built-in.o
                0x0000000080800808                v7_outer_cache_inval_all
 .text.invalidate_dcache_all
                0x000000008080080a        0xe arch/arm/cpu/armv7/built-in.o
                0x000000008080080a                invalidate_dcache_all
 .text.arm_init_before_mmu
                0x0000000080800818       0x22 arch/arm/cpu/armv7/built-in.o
                0x0000000080800818                arm_init_before_mmu
 .text.v7_outer_cache_flush_range
                0x000000008080083a        0x2 arch/arm/cpu/armv7/built-in.o
                0x000000008080083a                v7_outer_cache_flush_range
 .text.flush_dcache_range
                0x000000008080083c       0x26 arch/arm/cpu/armv7/built-in.o
                0x000000008080083c                flush_dcache_range
 .text.v7_outer_cache_inval_range
                0x0000000080800862        0x2 arch/arm/cpu/armv7/built-in.o
                0x0000000080800862                v7_outer_cache_inval_range
 .text.invalidate_dcache_range
                0x0000000080800864       0x78 arch/arm/cpu/armv7/built-in.o
                0x0000000080800864                invalidate_dcache_range
 .text.cpu_cache_initialization
                0x00000000808008dc        0x2 arch/arm/cpu/armv7/built-in.o
                0x00000000808008dc                cpu_cache_initialization
 .text.cleanup_before_linux_select
                0x00000000808008de       0x3e arch/arm/cpu/armv7/built-in.o
                0x00000000808008de                cleanup_before_linux_select
 .text.cleanup_before_linux
                0x000000008080091c        0x6 arch/arm/cpu/armv7/built-in.o
                0x000000008080091c                cleanup_before_linux
 *fill*         0x0000000080800922        0x2 
 .text.reset_cpu
                0x0000000080800924        0xc arch/arm/cpu/armv7/built-in.o
                0x0000000080800924                reset_cpu
 .text.timer_init
                0x0000000080800930       0x10 arch/arm/cpu/armv7/built-in.o
                0x0000000080800930                timer_init
 .text.__udelay
                0x0000000080800940       0x2c arch/arm/cpu/armv7/built-in.o
                0x0000000080800940                __udelay
 .text.get_timer_masked
                0x000000008080096c       0x34 arch/arm/cpu/armv7/built-in.o
                0x000000008080096c                get_timer_masked
 .text.get_timer
                0x00000000808009a0        0xc arch/arm/cpu/armv7/built-in.o
                0x00000000808009a0                get_timer
 .text.get_ticks
                0x00000000808009ac        0xa arch/arm/cpu/armv7/built-in.o
                0x00000000808009ac                get_ticks
 .text.get_tbclk
                0x00000000808009b6        0x6 arch/arm/cpu/armv7/built-in.o
                0x00000000808009b6                get_tbclk
 .text.enable_caches
                0x00000000808009bc        0x4 arch/arm/cpu/armv7/built-in.o
                0x00000000808009bc                enable_caches
 .text.dram_bank_mmu_setup
                0x00000000808009c0       0x26 arch/arm/cpu/armv7/built-in.o
                0x00000000808009c0                dram_bank_mmu_setup
 .text.arm_init_domains
                0x00000000808009e6       0x12 arch/arm/cpu/armv7/built-in.o
                0x00000000808009e6                arm_init_domains
 .text.get_cpu_type
                0x00000000808009f8       0x10 arch/arm/cpu/armv7/built-in.o
                0x00000000808009f8                get_cpu_type
 .text.get_device_type
                0x0000000080800a08       0x10 arch/arm/cpu/armv7/built-in.o
                0x0000000080800a08                get_device_type
 .text.print_cpuinfo
                0x0000000080800a18       0x7c arch/arm/cpu/armv7/built-in.o
                0x0000000080800a18                print_cpuinfo
 .text.dram_init
                0x0000000080800a94       0x16 arch/arm/cpu/armv7/built-in.o
                0x0000000080800a94                dram_init
 .text.dram_init_banksize
                0x0000000080800aaa       0x16 arch/arm/cpu/armv7/built-in.o
                0x0000000080800aaa                dram_init_banksize
 .text.am33xx_otg0_set_phy_power
                0x0000000080800ac0       0x20 arch/arm/cpu/armv7/built-in.o
 .text.am33xx_otg1_set_phy_power
                0x0000000080800ae0       0x20 arch/arm/cpu/armv7/built-in.o
 .text.cpu_mmc_init
                0x0000000080800b00       0x28 arch/arm/cpu/armv7/built-in.o
                0x0000000080800b00                cpu_mmc_init
 .text.arch_misc_init
                0x0000000080800b28       0x34 arch/arm/cpu/armv7/built-in.o
                0x0000000080800b28                arch_misc_init
 .text          0x0000000080800b5c       0x94 arch/arm/lib/built-in.o
                0x0000000080800b5c                _main
 .text.relocate_vectors
                0x0000000080800bf0       0x70 arch/arm/lib/built-in.o
                0x0000000080800bf0                relocate_vectors
                0x0000000080800bfc                relocate_code
 .text.arch_fixup_fdt
                0x0000000080800c60       0x24 arch/arm/lib/built-in.o
                0x0000000080800c60                arch_fixup_fdt
 .text.boot_jump_linux
                0x0000000080800c84       0x84 arch/arm/lib/built-in.o
 .text.arch_lmb_reserve
                0x0000000080800d08       0x1e arch/arm/lib/built-in.o
                0x0000000080800d08                arch_lmb_reserve
 .text.setup_board_tags
                0x0000000080800d26        0x2 arch/arm/lib/built-in.o
                0x0000000080800d26                setup_board_tags
 .text.boot_prep_linux
                0x0000000080800d28       0xfc arch/arm/lib/built-in.o
 .text.do_bootm_linux
                0x0000000080800e24       0x44 arch/arm/lib/built-in.o
                0x0000000080800e24                do_bootm_linux
 .text.bootz_setup
                0x0000000080800e68       0x38 arch/arm/lib/built-in.o
                0x0000000080800e68                bootz_setup
 .text.boot_prep_vxworks
                0x0000000080800ea0       0x34 arch/arm/lib/built-in.o
                0x0000000080800ea0                boot_prep_vxworks
 .text.boot_jump_vxworks
                0x0000000080800ed4        0xa arch/arm/lib/built-in.o
                0x0000000080800ed4                boot_jump_vxworks
 .text.arch_reserve_stacks
                0x0000000080800ede       0x16 arch/arm/lib/built-in.o
                0x0000000080800ede                arch_reserve_stacks
 .text.interrupt_init
                0x0000000080800ef4       0x14 arch/arm/lib/built-in.o
                0x0000000080800ef4                interrupt_init
 .text.enable_interrupts
                0x0000000080800f08        0x2 arch/arm/lib/built-in.o
                0x0000000080800f08                enable_interrupts
 .text.disable_interrupts
                0x0000000080800f0a        0x4 arch/arm/lib/built-in.o
                0x0000000080800f0a                disable_interrupts
 *fill*         0x0000000080800f0e        0x2 
 .text.bad_mode
                0x0000000080800f10        0xc arch/arm/lib/built-in.o
                0x0000000080800f10                bad_mode
 .text.show_regs
                0x0000000080800f1c      0x108 arch/arm/lib/built-in.o
                0x0000000080800f1c                show_regs
 .text.do_undefined_instruction
                0x0000000080801024       0x1c arch/arm/lib/built-in.o
                0x0000000080801024                do_undefined_instruction
 .text.do_software_interrupt
                0x0000000080801040       0x1c arch/arm/lib/built-in.o
                0x0000000080801040                do_software_interrupt
 .text.do_prefetch_abort
                0x000000008080105c       0x1c arch/arm/lib/built-in.o
                0x000000008080105c                do_prefetch_abort
 .text.do_data_abort
                0x0000000080801078       0x1c arch/arm/lib/built-in.o
                0x0000000080801078                do_data_abort
 .text.do_not_used
                0x0000000080801094       0x1c arch/arm/lib/built-in.o
                0x0000000080801094                do_not_used
 .text.do_fiq   0x00000000808010b0       0x1c arch/arm/lib/built-in.o
                0x00000000808010b0                do_fiq
 .text.do_irq   0x00000000808010cc       0x1c arch/arm/lib/built-in.o
                0x00000000808010cc                do_irq
 .text.reset_misc
                0x00000000808010e8        0x2 arch/arm/lib/built-in.o
                0x00000000808010e8                reset_misc
 *fill*         0x00000000808010ea        0x2 
 .text.do_reset
                0x00000000808010ec       0x28 arch/arm/lib/built-in.o
                0x00000000808010ec                do_reset
 .text.flush_cache
                0x0000000080801114        0x6 arch/arm/lib/built-in.o
                0x0000000080801114                flush_cache
 .text.cp_delay
                0x000000008080111a       0x18 arch/arm/lib/built-in.o
 .text.set_section_dcache
                0x0000000080801132       0x12 arch/arm/lib/built-in.o
                0x0000000080801132                set_section_dcache
 .text.icache_enable
                0x0000000080801144       0x14 arch/arm/lib/built-in.o
                0x0000000080801144                icache_enable
 .text.icache_disable
                0x0000000080801158       0x1c arch/arm/lib/built-in.o
                0x0000000080801158                icache_disable
 .text.dcache_enable
                0x0000000080801174       0x6a arch/arm/lib/built-in.o
                0x0000000080801174                dcache_enable
 .text.dcache_disable
                0x00000000808011de       0x24 arch/arm/lib/built-in.o
                0x00000000808011de                dcache_disable
 .text.dcache_status
                0x0000000080801202        0xa arch/arm/lib/built-in.o
                0x0000000080801202                dcache_status
 .text.do_go_exec
                0x000000008080120c        0x8 cmd/built-in.o
                0x000000008080120c                do_go_exec
 .text.do_go    0x0000000080801214       0x4c cmd/built-in.o
 .text.do_bootm
                0x0000000080801260       0xa4 cmd/built-in.o
                0x0000000080801260                do_bootm
 .text.do_bootd
                0x0000000080801304       0x18 cmd/built-in.o
                0x0000000080801304                do_bootd
 .text.image_info
                0x000000008080131c       0xc4 cmd/built-in.o
 .text.do_iminfo
                0x00000000808013e0       0x40 cmd/built-in.o
 .text.bootm_maybe_autostart
                0x0000000080801420       0x4c cmd/built-in.o
                0x0000000080801420                bootm_maybe_autostart
 .text.do_bootz
                0x000000008080146c       0xa0 cmd/built-in.o
                0x000000008080146c                do_bootz
 .text.do_help  0x000000008080150c       0x2c cmd/built-in.o
 .text.do_version
                0x0000000080801538       0x2c cmd/built-in.o
 .text.source   0x0000000080801564      0x11c cmd/built-in.o
                0x0000000080801564                source
 .text.do_source
                0x0000000080801680       0x50 cmd/built-in.o
 .text.print_num
                0x00000000808016d0       0x10 cmd/built-in.o
 .text.do_bdinfo
                0x00000000808016e0      0x124 cmd/built-in.o
 .text.bootefi_open_dp
                0x0000000080801804        0xc cmd/built-in.o
 .text.do_bootefi_exec
                0x0000000080801810      0x170 cmd/built-in.o
 .text.do_bootefi
                0x0000000080801980       0x58 cmd/built-in.o
 .text.efi_set_bootdev
                0x00000000808019d8       0xbc cmd/built-in.o
                0x00000000808019d8                efi_set_bootdev
 .text.do_coninfo
                0x0000000080801a94       0x84 cmd/built-in.o
 .text.do_echo  0x0000000080801b18       0x74 cmd/built-in.o
 .text.eeprom_write_enable
                0x0000000080801b8c        0x4 cmd/built-in.o
                0x0000000080801b8c                eeprom_write_enable
 .text.eeprom_read
                0x0000000080801b90       0x4c cmd/built-in.o
                0x0000000080801b90                eeprom_read
 .text.eeprom_write
                0x0000000080801bdc       0x6c cmd/built-in.o
                0x0000000080801bdc                eeprom_write
 .text.do_eeprom
                0x0000000080801c48       0xd8 cmd/built-in.o
 .text.load_elf_image_shdr
                0x0000000080801d20       0x4a cmd/built-in.o
 *fill*         0x0000000080801d6a        0x2 
 .text.valid_elf_image
                0x0000000080801d6c       0x30 cmd/built-in.o
                0x0000000080801d6c                valid_elf_image
 .text.do_bootelf
                0x0000000080801d9c      0x108 cmd/built-in.o
                0x0000000080801d9c                do_bootelf
 .text.do_bootvx
                0x0000000080801ea4      0x23c cmd/built-in.o
                0x0000000080801ea4                do_bootvx
 .text.do_exit  0x00000000808020e0       0x20 cmd/built-in.o
 .text.do_ext4_size
                0x0000000080802100        0xe cmd/built-in.o
                0x0000000080802100                do_ext4_size
 .text.do_ext4_load
                0x000000008080210e        0xe cmd/built-in.o
                0x000000008080210e                do_ext4_load
 .text.do_ext4_ls
                0x000000008080211c        0xe cmd/built-in.o
                0x000000008080211c                do_ext4_ls
 .text.do_ext4_write
                0x000000008080212a        0xe cmd/built-in.o
                0x000000008080212a                do_ext4_write
 .text.do_ext2load
                0x0000000080802138        0xe cmd/built-in.o
                0x0000000080802138                do_ext2load
 .text.do_ext2ls
                0x0000000080802146        0xe cmd/built-in.o
 .text.do_fat_size
                0x0000000080802154        0xe cmd/built-in.o
                0x0000000080802154                do_fat_size
 .text.do_fat_fsload
                0x0000000080802162        0xe cmd/built-in.o
                0x0000000080802162                do_fat_fsload
 .text.do_fat_ls
                0x0000000080802170        0xe cmd/built-in.o
 *fill*         0x000000008080217e        0x2 
 .text.do_fat_fsinfo
                0x0000000080802180       0x58 cmd/built-in.o
 .text.do_fat_fswrite
                0x00000000808021d8       0xb0 cmd/built-in.o
 .text.fdt_valid
                0x0000000080802288       0x74 cmd/built-in.o
 .text.is_printable_string
                0x00000000808022fc       0x50 cmd/built-in.o
 .text.print_data
                0x000000008080234c      0x108 cmd/built-in.o
 .text.set_working_fdt_addr
                0x0000000080802454       0x14 cmd/built-in.o
                0x0000000080802454                set_working_fdt_addr
 .text.do_fdt   0x0000000080802468      0x990 cmd/built-in.o
 .text.do_size_wrapper
                0x0000000080802df8        0xe cmd/built-in.o
 *fill*         0x0000000080802e06        0x2 
 .text.do_load_wrapper
                0x0000000080802e08       0x40 cmd/built-in.o
 .text.do_save_wrapper
                0x0000000080802e48        0xe cmd/built-in.o
 .text.do_ls_wrapper
                0x0000000080802e56        0xe cmd/built-in.o
 .text.do_fstype_wrapper
                0x0000000080802e64        0x4 cmd/built-in.o
 .text.gpio_get_description
                0x0000000080802e68       0x78 cmd/built-in.o
 .text.do_gpio  0x0000000080802ee0      0x210 cmd/built-in.o
 .text.do_i2c   0x00000000808030f0       0x3c cmd/built-in.o
 .text.do_i2c_bus_speed
                0x000000008080312c       0x50 cmd/built-in.o
 .text.do_i2c_reset
                0x000000008080317c       0x20 cmd/built-in.o
 .text.do_i2c_probe
                0x000000008080319c       0x5c cmd/built-in.o
 .text.do_i2c_bus_num
                0x00000000808031f8       0x7c cmd/built-in.o
 .text.do_i2c_show_bus
                0x0000000080803274       0x8c cmd/built-in.o
 .text.get_alen.constprop.5
                0x0000000080803300       0x1c cmd/built-in.o
 .text.do_i2c_crc
                0x000000008080331c       0xb8 cmd/built-in.o
 .text.mod_i2c_mem.isra.3
                0x00000000808033d4      0x148 cmd/built-in.o
 .text.do_i2c_nm
                0x000000008080351c        0x6 cmd/built-in.o
 .text.do_i2c_mm
                0x0000000080803522        0x6 cmd/built-in.o
 .text.do_i2c_md
                0x0000000080803528      0x13c cmd/built-in.o
 .text.do_i2c_read
                0x0000000080803664       0x78 cmd/built-in.o
 .text.do_i2c_mw
                0x00000000808036dc       0xa4 cmd/built-in.o
 .text.do_i2c_write
                0x0000000080803780       0xdc cmd/built-in.o
 .text.do_i2c_loop
                0x000000008080385c       0x9c cmd/built-in.o
 .text.i2c_init_board
                0x00000000808038f8        0x2 cmd/built-in.o
                0x00000000808038f8                i2c_init_board
 .text.evalexp  0x00000000808038fa       0x42 cmd/built-in.o
 .text.evalstr  0x000000008080393c       0x3c cmd/built-in.o
 .text.binary_test
                0x0000000080803978      0x128 cmd/built-in.o
 .text.do_itest
                0x0000000080803aa0       0x4c cmd/built-in.o
 .text.bin_data_init
                0x0000000080803aec       0x1c cmd/built-in.o
 .text.k_data_save
                0x0000000080803b08       0x34 cmd/built-in.o
 .text.k_data_restore
                0x0000000080803b3c       0x34 cmd/built-in.o
 .text.getcxmodem
                0x0000000080803b70       0x16 cmd/built-in.o
 *fill*         0x0000000080803b86        0x2 
 .text.load_serial_ymodem
                0x0000000080803b88       0x88 cmd/built-in.o
 .text.bin_data_char
                0x0000000080803c10       0x1c cmd/built-in.o
 .text.chk1.constprop.1
                0x0000000080803c2c       0x20 cmd/built-in.o
 .text.s1_sendpacket.constprop.2
                0x0000000080803c4c       0x34 cmd/built-in.o
 .text.load_serial
                0x0000000080803c80      0x130 cmd/built-in.o
 .text.do_load_serial
                0x0000000080803db0       0x90 cmd/built-in.o
 .text.do_load_serial_bin
                0x0000000080803e40      0x52c cmd/built-in.o
 .text.do_mem_mw
                0x000000008080436c       0x80 cmd/built-in.o
 .text.do_mem_loop
                0x00000000808043ec       0x82 cmd/built-in.o
 *fill*         0x000000008080446e        0x2 
 .text.do_mem_md
                0x0000000080804470       0xa0 cmd/built-in.o
 .text.do_mem_base
                0x0000000080804510       0x28 cmd/built-in.o
 .text.do_mem_cp
                0x0000000080804538       0x8c cmd/built-in.o
 .text.do_mem_cmp
                0x00000000808045c4       0xfc cmd/built-in.o
 .text.do_mem_crc
                0x00000000808046c0       0x2c cmd/built-in.o
 .text.mod_mem.isra.0
                0x00000000808046ec       0xf4 cmd/built-in.o
 .text.do_mem_mm
                0x00000000808047e0        0x6 cmd/built-in.o
 .text.do_mem_nm
                0x00000000808047e6        0x6 cmd/built-in.o
 .text.extract_range
                0x00000000808047ec       0x7c cmd/built-in.o
 .text.do_mii   0x0000000080804868      0x61c cmd/built-in.o
 .text.do_mdio  0x0000000080804e84      0x320 cmd/built-in.o
 .text.do_sleep
                0x00000000808051a4       0x46 cmd/built-in.o
 *fill*         0x00000000808051ea        0x2 
 .text.do_mmcops
                0x00000000808051ec       0x7c cmd/built-in.o
 .text.init_mmc_device
                0x0000000080805268       0x34 cmd/built-in.o
 .text.do_mmc_rescan
                0x000000008080529c       0x18 cmd/built-in.o
 .text.do_mmc_rst_func
                0x00000000808052b4       0x60 cmd/built-in.o
 .text.do_mmc_partconf
                0x0000000080805314       0x74 cmd/built-in.o
 .text.do_mmc_boot_resize
                0x0000000080805388       0x84 cmd/built-in.o
 .text.do_mmc_bootbus
                0x000000008080540c       0x74 cmd/built-in.o
 .text.do_mmc_hwpartition
                0x0000000080805480      0x3a4 cmd/built-in.o
 .text.do_mmc_list
                0x0000000080805824        0xc cmd/built-in.o
 .text.do_mmc_dev
                0x0000000080805830       0xc4 cmd/built-in.o
 .text.do_mmc_part
                0x00000000808058f4       0x38 cmd/built-in.o
 .text.do_mmc_erase
                0x000000008080592c       0x9c cmd/built-in.o
 .text.do_mmc_write
                0x00000000808059c8       0xb0 cmd/built-in.o
 .text.do_mmc_read
                0x0000000080805a78       0xa8 cmd/built-in.o
 .text.do_mmcinfo
                0x0000000080805b20      0x294 cmd/built-in.o
 .text.do_mmc_setdsr
                0x0000000080805db4       0x74 cmd/built-in.o
 .text.part_delall
                0x0000000080805e28       0x26 cmd/built-in.o
 .text.memsize_parse
                0x0000000080805e4e       0x48 cmd/built-in.o
 *fill*         0x0000000080805e96        0x2 
 .text.mtd_part_info
                0x0000000080805e98       0x5c cmd/built-in.o
 .text.memsize_format
                0x0000000080805ef4       0x6c cmd/built-in.o
 .text.index_partitions
                0x0000000080805f60       0x68 cmd/built-in.o
 .text.current_save
                0x0000000080805fc8       0x78 cmd/built-in.o
 .text.part_sort_add
                0x0000000080806040       0xc0 cmd/built-in.o
 .text.device_del
                0x0000000080806100       0x50 cmd/built-in.o
 .text.generate_mtdparts_save.constprop.6
                0x0000000080806150      0x1b8 cmd/built-in.o
 .text.device_delall.constprop.8
                0x0000000080806308       0x3c cmd/built-in.o
 .text.mtd_devices_init
                0x0000000080806344       0x20 cmd/built-in.o
 .text.get_mtd_info.constprop.9
                0x0000000080806364       0x58 cmd/built-in.o
 .text.part_validate
                0x00000000808063bc      0x24c cmd/built-in.o
 .text.device_find
                0x0000000080806608       0x28 cmd/built-in.o
                0x0000000080806608                device_find
 .text.device_parse
                0x0000000080806630      0x374 cmd/built-in.o
 .text.mtd_id_parse
                0x00000000808069a4       0xa0 cmd/built-in.o
                0x00000000808069a4                mtd_id_parse
 .text.find_dev_and_part
                0x0000000080806a44      0x11c cmd/built-in.o
                0x0000000080806a44                find_dev_and_part
 .text.mtdparts_init
                0x0000000080806b60      0x428 cmd/built-in.o
                0x0000000080806b60                mtdparts_init
 .text.do_chpart
                0x0000000080806f88       0x88 cmd/built-in.o
 .text.do_mtdparts
                0x0000000080807010      0x3d8 cmd/built-in.o
 .text.netboot_common
                0x00000000808073e8      0x1cc cmd/built-in.o
 .text.do_bootp
                0x00000000808075b4        0x8 cmd/built-in.o
 .text.do_dhcp  0x00000000808075bc        0x8 cmd/built-in.o
 .text.do_nfs   0x00000000808075c4        0x8 cmd/built-in.o
 .text.do_tftpb
                0x00000000808075cc       0x26 cmd/built-in.o
                0x00000000808075cc                do_tftpb
 *fill*         0x00000000808075f2        0x2 
 .text.do_ping  0x00000000808075f4       0x48 cmd/built-in.o
 .text.do_part_list
                0x000000008080763c       0xec cmd/built-in.o
 .text.do_part_start
                0x0000000080807728       0x84 cmd/built-in.o
 .text.do_part_size
                0x00000000808077ac       0x84 cmd/built-in.o
 .text.do_part  0x0000000080807830       0xb0 cmd/built-in.o
 .text.eol_or_eof
                0x00000000808078e0       0x12 cmd/built-in.o
 *fill*         0x00000000808078f2        0x2 
 .text.do_pxe   0x00000000808078f4       0x48 cmd/built-in.o
 .text.label_print
                0x000000008080793c       0x14 cmd/built-in.o
 .text.do_get_tftp
                0x0000000080807950       0x2c cmd/built-in.o
 .text.from_env
                0x000000008080797c       0x1c cmd/built-in.o
 .text.get_string
                0x0000000080807998       0x84 cmd/built-in.o
 .text.label_destroy
                0x0000000080807a1c       0x3e cmd/built-in.o
 .text.destroy_pxe_menu
                0x0000000080807a5a       0x36 cmd/built-in.o
 .text.get_token
                0x0000000080807a90       0xa4 cmd/built-in.o
 .text.parse_sliteral
                0x0000000080807b34       0x34 cmd/built-in.o
 .text.parse_integer
                0x0000000080807b68       0x44 cmd/built-in.o
 .text.do_get_any
                0x0000000080807bac       0x2c cmd/built-in.o
 .text.do_get_fat
                0x0000000080807bd8       0x28 cmd/built-in.o
 .text.do_get_ext2
                0x0000000080807c00       0x28 cmd/built-in.o
 .text.format_mac_pxe.constprop.6
                0x0000000080807c28       0x54 cmd/built-in.o
 .text.get_relfile
                0x0000000080807c7c       0xcc cmd/built-in.o
 .text.get_pxe_file
                0x0000000080807d48       0x3c cmd/built-in.o
 .text.handle_include
                0x0000000080807d84       0x64 cmd/built-in.o
 .text.parse_pxefile_top
                0x0000000080807de8      0x308 cmd/built-in.o
 .text.parse_pxefile
                0x00000000808080f0       0x40 cmd/built-in.o
 .text.get_pxelinux_path
                0x0000000080808130       0x50 cmd/built-in.o
 .text.do_pxe_get
                0x0000000080808180       0xe4 cmd/built-in.o
 .text.get_relfile_envaddr
                0x0000000080808264       0x34 cmd/built-in.o
 .text.label_boot
                0x0000000080808298      0x3ac cmd/built-in.o
 .text.handle_pxe_menu
                0x0000000080808644       0xd8 cmd/built-in.o
 .text.do_pxe_boot
                0x000000008080871c       0x94 cmd/built-in.o
 .text.do_sysboot
                0x00000000808087b0      0x13c cmd/built-in.o
 .text.do_time  0x00000000808088ec       0x94 cmd/built-in.o
 .text.do_false
                0x0000000080808980        0x4 cmd/built-in.o
 .text.do_true  0x0000000080808984        0x4 cmd/built-in.o
 .text.do_test  0x0000000080808988      0x200 cmd/built-in.o
 .text.ubi_find_volume
                0x0000000080808b88       0x44 cmd/built-in.o
 .text.ubi_volume_continue_write
                0x0000000080808bcc       0x70 cmd/built-in.o
 .text.ubi_volume_begin_write
                0x0000000080808c3c       0x70 cmd/built-in.o
                0x0000000080808c3c                ubi_volume_begin_write
 .text.ubi_volume_write
                0x0000000080808cac        0x6 cmd/built-in.o
                0x0000000080808cac                ubi_volume_write
 *fill*         0x0000000080808cb2        0x2 
 .text.ubi_volume_read
                0x0000000080808cb4      0x148 cmd/built-in.o
                0x0000000080808cb4                ubi_volume_read
 .text.ubi_part
                0x0000000080808dfc      0x18c cmd/built-in.o
                0x0000000080808dfc                ubi_part
 .text.do_ubi   0x0000000080808f88      0x5dc cmd/built-in.o
 .text.do_ubifs_mount
                0x0000000080809564       0x38 cmd/built-in.o
 .text.do_ubifs_ls
                0x000000008080959c       0x40 cmd/built-in.o
 .text.do_ubifs_load
                0x00000000808095dc       0x74 cmd/built-in.o
 .text.ubifs_is_mounted
                0x0000000080809650        0xc cmd/built-in.o
                0x0000000080809650                ubifs_is_mounted
 .text.cmd_ubifs_umount
                0x000000008080965c       0x1c cmd/built-in.o
                0x000000008080965c                cmd_ubifs_umount
 .text.do_ubifs_umount
                0x0000000080809678       0x2c cmd/built-in.o
 .text.usb_get_class_desc
                0x00000000808096a4       0x74 cmd/built-in.o
 .text.usb_find_device
                0x0000000080809718       0x1e cmd/built-in.o
 *fill*         0x0000000080809736        0x2 
 .text.usb_show_tree_graph
                0x0000000080809738      0x180 cmd/built-in.o
 .text.usb_display_class_sub
                0x00000000808098b8       0xf4 cmd/built-in.o
 .text.usb_display_string
                0x00000000808099ac       0x2c cmd/built-in.o
 .text.usb_display_config
                0x00000000808099d8      0x1a8 cmd/built-in.o
 .text.do_usbboot
                0x0000000080809b80        0xc cmd/built-in.o
 .text.usb_display_desc.part.1
                0x0000000080809b8c       0xd0 cmd/built-in.o
 .text.do_usb_start
                0x0000000080809c5c       0x20 cmd/built-in.o
 .text.usb_show_tree
                0x0000000080809c7c       0x30 cmd/built-in.o
                0x0000000080809c7c                usb_show_tree
 .text.do_usb   0x0000000080809cac      0x4c4 cmd/built-in.o
 .text.do_imgextract
                0x000000008080a170      0x290 cmd/built-in.o
 .text.do_spl   0x000000008080a400      0x100 cmd/built-in.o
 .text.extract_val
                0x000000008080a500       0x5c cmd/built-in.o
 .text.extract_env
                0x000000008080a55c       0x80 cmd/built-in.o
 .text.set_gpt_info.isra.1.constprop.2
                0x000000008080a5dc      0x28c cmd/built-in.o
 .text.do_gpt   0x000000008080a868      0x1dc cmd/built-in.o
 .text.do_env_delete
                0x000000008080aa44       0x6c cmd/built-in.o
 .text.do_env_exists
                0x000000008080aab0       0x40 cmd/built-in.o
 .text.do_env   0x000000008080aaf0       0x3c cmd/built-in.o
 .text.env_print
                0x000000008080ab2c       0x74 cmd/built-in.o
 .text.do_env_print
                0x000000008080aba0       0x80 cmd/built-in.o
 .text.do_env_import
                0x000000008080ac20      0x190 cmd/built-in.o
 .text.do_env_default
                0x000000008080adb0       0x54 cmd/built-in.o
 .text._do_env_set.isra.0
                0x000000008080ae04      0x12c cmd/built-in.o
 .text.do_env_set
                0x000000008080af30       0x14 cmd/built-in.o
 .text.do_env_ask
                0x000000008080af44       0xe8 cmd/built-in.o
                0x000000008080af44                do_env_ask
 .text.get_env_id
                0x000000008080b02c        0xc cmd/built-in.o
                0x000000008080b02c                get_env_id
 .text.setenv   0x000000008080b038       0x3c cmd/built-in.o
                0x000000008080b038                setenv
 .text.setenv_ulong
                0x000000008080b074       0x16 cmd/built-in.o
                0x000000008080b074                setenv_ulong
 *fill*         0x000000008080b08a        0x2 
 .text.setenv_hex
                0x000000008080b08c       0x20 cmd/built-in.o
                0x000000008080b08c                setenv_hex
 .text.do_env_export
                0x000000008080b0ac      0x16c cmd/built-in.o
 .text.envmatch
                0x000000008080b218       0x3c cmd/built-in.o
                0x000000008080b218                envmatch
 .text.getenv_f
                0x000000008080b254       0x84 cmd/built-in.o
                0x000000008080b254                getenv_f
 .text.getenv   0x000000008080b2d8       0x54 cmd/built-in.o
                0x000000008080b2d8                getenv
 .text.getenv_hex
                0x000000008080b32c       0x22 cmd/built-in.o
                0x000000008080b32c                getenv_hex
 .text.getenv_ulong
                0x000000008080b34e       0x1c cmd/built-in.o
                0x000000008080b34e                getenv_ulong
 *fill*         0x000000008080b36a        0x2 
 .text.do_env_edit.part.2
                0x000000008080b36c       0x70 cmd/built-in.o
 .text.do_env_edit
                0x000000008080b3dc       0x1c cmd/built-in.o
 .text.common_diskboot
                0x000000008080b3f8      0x1d0 cmd/built-in.o
                0x000000008080b3f8                common_diskboot
 .text.board_init_f_alloc_reserve
                0x000000008080b5c8        0xa common/built-in.o
                0x000000008080b5c8                board_init_f_alloc_reserve
 .text.board_init_f_init_reserve
                0x000000008080b5d2       0x14 common/built-in.o
                0x000000008080b5d2                board_init_f_init_reserve
 .text.show_boot_progress
                0x000000008080b5e6        0x2 common/built-in.o
                0x000000008080b5e6                show_boot_progress
 .text.main_loop
                0x000000008080b5e8       0x34 common/built-in.o
                0x000000008080b5e8                main_loop
 .text.dummy    0x000000008080b61c        0x2 common/built-in.o
 .text.get_version
                0x000000008080b61e        0x4 common/built-in.o
                0x000000008080b61e                get_version
 *fill*         0x000000008080b622        0x2 
 .text.jumptable_init
                0x000000008080b624      0x164 common/built-in.o
                0x000000008080b624                jumptable_init
 .text.hash_finish_crc32
                0x000000008080b788       0x1c common/built-in.o
 .text.hash_update_crc32
                0x000000008080b7a4       0x14 common/built-in.o
 .text.hash_init_crc32
                0x000000008080b7b8       0x14 common/built-in.o
 .text.hash_finish_sha256
                0x000000008080b7cc       0x22 common/built-in.o
 .text.hash_update_sha256
                0x000000008080b7ee       0x10 common/built-in.o
 .text.hash_init_sha256
                0x000000008080b7fe       0x16 common/built-in.o
 .text.hash_finish_sha1
                0x000000008080b814       0x22 common/built-in.o
 .text.hash_update_sha1
                0x000000008080b836       0x10 common/built-in.o
 .text.hash_init_sha1
                0x000000008080b846       0x16 common/built-in.o
 .text.hash_lookup_algo
                0x000000008080b85c       0x3c common/built-in.o
                0x000000008080b85c                hash_lookup_algo
 .text.hash_command
                0x000000008080b898      0x128 common/built-in.o
                0x000000008080b898                hash_command
 .text.b_reset  0x000000008080b9c0        0xe common/built-in.o
 .text.static_get
                0x000000008080b9ce       0x12 common/built-in.o
 .text.file_peek
                0x000000008080b9e0        0x6 common/built-in.o
 *fill*         0x000000008080b9e6        0x2 
 .text.mapset   0x000000008080b9e8       0x14 common/built-in.o
 .text.syntax_err
                0x000000008080b9fc        0xc common/built-in.o
 .text.free_pipe_list
                0x000000008080ba08       0x96 common/built-in.o
 *fill*         0x000000008080ba9e        0x2 
 .text.xmalloc  0x000000008080baa0       0x18 common/built-in.o
 .text.new_pipe
                0x000000008080bab8       0x16 common/built-in.o
 *fill*         0x000000008080bace        0x2 
 .text.xrealloc
                0x000000008080bad0       0x18 common/built-in.o
 .text.done_command
                0x000000008080bae8       0x42 common/built-in.o
 .text.done_pipe
                0x000000008080bb2a       0x2a common/built-in.o
 .text.done_word
                0x000000008080bb54      0x1cc common/built-in.o
 .text.do_showvar
                0x000000008080bd20       0xa0 common/built-in.o
 .text.is_assignment
                0x000000008080bdc0       0x2c common/built-in.o
 .text.file_get
                0x000000008080bdec      0x134 common/built-in.o
 .text.b_addchr
                0x000000008080bf20       0x42 common/built-in.o
 *fill*         0x000000008080bf62        0x2 
 .text.b_addqchr
                0x000000008080bf64       0x30 common/built-in.o
 .text.static_peek
                0x000000008080bf94        0x6 common/built-in.o
 *fill*         0x000000008080bf9a        0x2 
 .text.get_local_var
                0x000000008080bf9c       0x58 common/built-in.o
                0x000000008080bf9c                get_local_var
 .text.set_local_var
                0x000000008080bff4      0x10c common/built-in.o
                0x000000008080bff4                set_local_var
 .text.insert_var_value_sub
                0x000000008080c100      0x1c0 common/built-in.o
 .text.parse_string_outer
                0x000000008080c2c0       0x94 common/built-in.o
                0x000000008080c2c0                parse_string_outer
 .text.run_list_real
                0x000000008080c354      0x4d4 common/built-in.o
 .text.parse_stream_outer
                0x000000008080c828      0x43c common/built-in.o
 .text.parse_file_outer
                0x000000008080cc64       0x2c common/built-in.o
                0x000000008080cc64                parse_file_outer
 .text.u_boot_hush_start
                0x000000008080cc90       0x30 common/built-in.o
                0x000000008080cc90                u_boot_hush_start
 .text.bootdelay_process
                0x000000008080ccc0       0x78 common/built-in.o
                0x000000008080ccc0                bootdelay_process
 .text.autoboot_command
                0x000000008080cd38       0x88 common/built-in.o
                0x000000008080cd38                autoboot_command
 .text.setup_mon_len
                0x000000008080cdc0       0x18 common/built-in.o
 .text.reserve_round_4k
                0x000000008080cdd8       0x14 common/built-in.o
 .text.reserve_mmu
                0x000000008080cdec       0x2e common/built-in.o
 .text.reserve_uboot
                0x000000008080ce1a       0x2a common/built-in.o
 .text.reserve_malloc
                0x000000008080ce44       0x10 common/built-in.o
 .text.setup_machine
                0x000000008080ce54        0xe common/built-in.o
 .text.reserve_global_data
                0x000000008080ce62       0x16 common/built-in.o
 .text.reserve_fdt
                0x000000008080ce78       0x3a common/built-in.o
 .text.initf_console_record
                0x000000008080ceb2        0x4 common/built-in.o
 .text.arch_cpu_init_dm
                0x000000008080ceb6        0x4 common/built-in.o
                0x000000008080ceb6                arch_cpu_init_dm
 .text.init_func_watchdog_reset
                0x000000008080ceba        0xa common/built-in.o
                0x000000008080ceba                init_func_watchdog_reset
 .text.announce_dram_init
                0x000000008080cec4       0x10 common/built-in.o
 .text.init_func_watchdog_init
                0x000000008080ced4       0x14 common/built-in.o
 .text.init_func_i2c
                0x000000008080cee8       0x20 common/built-in.o
 .text.init_baud_rate
                0x000000008080cf08       0x1c common/built-in.o
 .text.mark_bootstage
                0x000000008080cf24        0xc common/built-in.o
 .text.initf_dm
                0x000000008080cf30        0x6 common/built-in.o
 .text.setup_reloc
                0x000000008080cf36       0x26 common/built-in.o
 .text.reloc_fdt
                0x000000008080cf5c       0x2c common/built-in.o
 .text.reserve_board
                0x000000008080cf88       0x28 common/built-in.o
 .text.reserve_arch
                0x000000008080cfb0        0x4 common/built-in.o
                0x000000008080cfb0                reserve_arch
 .text.display_text_info
                0x000000008080cfb4        0x4 common/built-in.o
 .text.arch_cpu_init
                0x000000008080cfb8        0x4 common/built-in.o
                0x000000008080cfb8                arch_cpu_init
 .text.reserve_trace
                0x000000008080cfbc        0x4 common/built-in.o
 .text.display_new_sp
                0x000000008080cfc0        0x4 common/built-in.o
 .text.coloured_LED_init
                0x000000008080cfc4        0x2 common/built-in.o
                0x000000008080cfc4                coloured_LED_init
 .text.red_led_on
                0x000000008080cfc6        0x2 common/built-in.o
                0x000000008080cfc6                red_led_on
 .text.board_add_ram_info
                0x000000008080cfc8        0x2 common/built-in.o
                0x000000008080cfc8                board_add_ram_info
 *fill*         0x000000008080cfca        0x2 
 .text.show_dram_config
                0x000000008080cfcc       0x28 common/built-in.o
 .text.setup_dram_config
                0x000000008080cff4        0xa common/built-in.o
 .text.board_get_usable_ram_top
                0x000000008080cffe       0x10 common/built-in.o
                0x000000008080cffe                board_get_usable_ram_top
 .text.board_reserve_ram_top
                0x000000008080d00e        0x2 common/built-in.o
                0x000000008080d00e                board_reserve_ram_top
 .text.setup_dest_addr
                0x000000008080d010       0x3c common/built-in.o
 .text.reserve_stacks
                0x000000008080d04c       0x1a common/built-in.o
 *fill*         0x000000008080d066        0x2 
 .text.board_init_f
                0x000000008080d068       0x20 common/built-in.o
                0x000000008080d068                board_init_f
 .text.bootstage_relocate
                0x000000008080d088        0x4 common/built-in.o
 .text.initr_reloc
                0x000000008080d08c       0x14 common/built-in.o
 .text.power_init_board
                0x000000008080d0a0        0x4 common/built-in.o
                0x000000008080d0a0                power_init_board
 .text.initr_announce
                0x000000008080d0a4        0x4 common/built-in.o
 .text.run_main_loop
                0x000000008080d0a8        0x8 common/built-in.o
 .text.initr_net
                0x000000008080d0b0       0x14 common/built-in.o
 .text.initr_ethaddr
                0x000000008080d0c4       0x18 common/built-in.o
 .text.initr_enable_interrupts
                0x000000008080d0dc        0xa common/built-in.o
 .text.initr_jumptable
                0x000000008080d0e6        0xa common/built-in.o
 .text.initr_env
                0x000000008080d0f0       0x20 common/built-in.o
 .text.initr_mmc
                0x000000008080d110       0x18 common/built-in.o
 .text.initr_serial
                0x000000008080d128        0xa common/built-in.o
 .text.initr_bootstage
                0x000000008080d132        0xc common/built-in.o
 .text.initr_dm
                0x000000008080d13e       0x12 common/built-in.o
 .text.initr_malloc
                0x000000008080d150       0x16 common/built-in.o
 *fill*         0x000000008080d166        0x2 
 .text.initr_reloc_global_data
                0x000000008080d168       0x28 common/built-in.o
 .text.initr_caches
                0x000000008080d190        0xa common/built-in.o
 .text.initr_console_record
                0x000000008080d19a        0x4 common/built-in.o
 .text.initr_trace
                0x000000008080d19e        0x4 common/built-in.o
 .text.initr_barrier
                0x000000008080d1a2        0x4 common/built-in.o
 .text.cpu_secondary_init_r
                0x000000008080d1a6        0x2 common/built-in.o
                0x000000008080d1a6                cpu_secondary_init_r
 .text.initr_secondary_cpu
                0x000000008080d1a8        0xa common/built-in.o
 *fill*         0x000000008080d1b2        0x2 
 .text.board_init_r
                0x000000008080d1b4       0x10 common/built-in.o
                0x000000008080d1b4                board_init_r
 .text.bootm_find_images
                0x000000008080d1c4       0x88 common/built-in.o
                0x000000008080d1c4                bootm_find_images
 .text.bootm_decomp_image
                0x000000008080d24c      0x100 common/built-in.o
                0x000000008080d24c                bootm_decomp_image
 .text.bootm_disable_interrupts
                0x000000008080d34c       0x10 common/built-in.o
                0x000000008080d34c                bootm_disable_interrupts
 .text.do_bootm_states
                0x000000008080d35c      0x640 common/built-in.o
                0x000000008080d35c                do_bootm_states
 .text.copy_args
                0x000000008080d99c       0x3a common/built-in.o
 *fill*         0x000000008080d9d6        0x2 
 .text.do_bootm_rtems
                0x000000008080d9d8       0x4c common/built-in.o
 .text.do_bootm_plan9
                0x000000008080da24       0x88 common/built-in.o
 .text.do_bootm_standalone
                0x000000008080daac       0x40 common/built-in.o
 .text.do_bootm_qnxelf
                0x000000008080daec       0x5c common/built-in.o
 .text.do_bootm_netbsd
                0x000000008080db48       0xc4 common/built-in.o
 .text.do_bootvx_fdt
                0x000000008080dc0c       0xcc common/built-in.o
                0x000000008080dc0c                do_bootvx_fdt
 .text.do_bootm_vxworks
                0x000000008080dcd8       0x38 common/built-in.o
 .text.arch_preboot_os
                0x000000008080dd10        0x2 common/built-in.o
                0x000000008080dd10                arch_preboot_os
 .text.boot_selected_os
                0x000000008080dd12       0x3a common/built-in.o
                0x000000008080dd12                boot_selected_os
 .text.bootm_os_get_boot_func
                0x000000008080dd4c        0xc common/built-in.o
                0x000000008080dd4c                bootm_os_get_boot_func
 .text.regex_callback
                0x000000008080dd58       0xd0 common/built-in.o
 .text.env_attr_walk
                0x000000008080de28       0xbe common/built-in.o
                0x000000008080de28                env_attr_walk
 *fill*         0x000000008080dee6        0x2 
 .text.env_attr_lookup
                0x000000008080dee8       0x50 common/built-in.o
                0x000000008080dee8                env_attr_lookup
 .text.clear_callback
                0x000000008080df38        0x8 common/built-in.o
 .text.find_env_callback
                0x000000008080df40       0x3c common/built-in.o
 .text.on_callbacks
                0x000000008080df7c       0x38 common/built-in.o
 .text.set_callback
                0x000000008080dfb4       0x50 common/built-in.o
 .text.env_callback_init
                0x000000008080e004       0x78 common/built-in.o
                0x000000008080e004                env_callback_init
 .text.skip_num
                0x000000008080e07c       0x44 common/built-in.o
 .text.clear_flags
                0x000000008080e0c0        0x8 common/built-in.o
 .text.on_flags
                0x000000008080e0c8       0x38 common/built-in.o
 .text.env_flags_parse_vartype
                0x000000008080e100       0x30 common/built-in.o
                0x000000008080e100                env_flags_parse_vartype
 .text.env_flags_parse_varaccess
                0x000000008080e130       0x38 common/built-in.o
                0x000000008080e130                env_flags_parse_varaccess
 .text.set_flags
                0x000000008080e168       0x68 common/built-in.o
 .text.eth_validate_ethaddr_str
                0x000000008080e1d0       0x50 common/built-in.o
                0x000000008080e1d0                eth_validate_ethaddr_str
 .text.env_flags_init
                0x000000008080e220       0x90 common/built-in.o
                0x000000008080e220                env_flags_init
 .text.env_flags_validate
                0x000000008080e2b0      0x1c0 common/built-in.o
                0x000000008080e2b0                env_flags_validate
 .text.env_relocate_spec
                0x000000008080e470        0x2 common/built-in.o
                0x000000008080e470                env_relocate_spec
 *fill*         0x000000008080e472        0x2 
 .text.env_init
                0x000000008080e474       0x14 common/built-in.o
                0x000000008080e474                env_init
 .text.fdt_find_and_setprop
                0x000000008080e488       0x48 common/built-in.o
                0x000000008080e488                fdt_find_and_setprop
 .text.fdt_find_or_add_subnode
                0x000000008080e4d0       0x40 common/built-in.o
                0x000000008080e4d0                fdt_find_or_add_subnode
 .text.fdt_root
                0x000000008080e510       0x60 common/built-in.o
                0x000000008080e510                fdt_root
 .text.fdt_initrd
                0x000000008080e570      0x12c common/built-in.o
                0x000000008080e570                fdt_initrd
 .text.fdt_chosen
                0x000000008080e69c       0x6c common/built-in.o
                0x000000008080e69c                fdt_chosen
 .text.do_fixup_by_path
                0x000000008080e708       0x34 common/built-in.o
                0x000000008080e708                do_fixup_by_path
 .text.fdt_fixup_memory_banks
                0x000000008080e73c      0x128 common/built-in.o
                0x000000008080e73c                fdt_fixup_memory_banks
 .text.fdt_fixup_memory
                0x000000008080e864       0x16 common/built-in.o
                0x000000008080e864                fdt_fixup_memory
 *fill*         0x000000008080e87a        0x2 
 .text.fdt_fixup_ethernet
                0x000000008080e87c      0x104 common/built-in.o
                0x000000008080e87c                fdt_fixup_ethernet
 .text.fdt_shrink_to_minimum
                0x000000008080e980       0x84 common/built-in.o
                0x000000008080e980                fdt_shrink_to_minimum
 .text.miiphy_get_dev_by_name
                0x000000008080ea04       0x38 common/built-in.o
                0x000000008080ea04                miiphy_get_dev_by_name
 .text.miiphy_init
                0x000000008080ea3c       0x18 common/built-in.o
                0x000000008080ea3c                miiphy_init
 .text.mdio_alloc
                0x000000008080ea54       0x1c common/built-in.o
                0x000000008080ea54                mdio_alloc
 .text.mdio_register
                0x000000008080ea70       0x50 common/built-in.o
                0x000000008080ea70                mdio_register
 .text.mdio_list_devices
                0x000000008080eac0       0x74 common/built-in.o
                0x000000008080eac0                mdio_list_devices
 .text.miiphy_set_current_dev
                0x000000008080eb34       0x28 common/built-in.o
                0x000000008080eb34                miiphy_set_current_dev
 .text.miiphy_get_active_dev
                0x000000008080eb5c       0x30 common/built-in.o
 .text.mdio_get_current_dev
                0x000000008080eb8c        0xc common/built-in.o
                0x000000008080eb8c                mdio_get_current_dev
 .text.mdio_phydev_for_ethname
                0x000000008080eb98       0x54 common/built-in.o
                0x000000008080eb98                mdio_phydev_for_ethname
 .text.miiphy_get_current_dev
                0x000000008080ebec       0x10 common/built-in.o
                0x000000008080ebec                miiphy_get_current_dev
 .text.miiphy_read
                0x000000008080ebfc       0x28 common/built-in.o
                0x000000008080ebfc                miiphy_read
 .text.miiphy_write
                0x000000008080ec24       0x24 common/built-in.o
                0x000000008080ec24                miiphy_write
 .text.miiphy_listdev
                0x000000008080ec48       0x54 common/built-in.o
                0x000000008080ec48                miiphy_listdev
 .text.miiphy_info
                0x000000008080ec9c       0x5c common/built-in.o
                0x000000008080ec9c                miiphy_info
 .text.miiphy_is_1000base_x
                0x000000008080ecf8       0x30 common/built-in.o
                0x000000008080ecf8                miiphy_is_1000base_x
 .text.miiphy_speed
                0x000000008080ed28       0x98 common/built-in.o
                0x000000008080ed28                miiphy_speed
 .text.miiphy_duplex
                0x000000008080edc0       0xb4 common/built-in.o
                0x000000008080edc0                miiphy_duplex
 .text.usb_set_maxpacket_ep
                0x000000008080ee74       0x54 common/built-in.o
 .text.usb_stop
                0x000000008080eec8       0x38 common/built-in.o
                0x000000008080eec8                usb_stop
 .text.usb_disable_asynch
                0x000000008080ef00       0x14 common/built-in.o
                0x000000008080ef00                usb_disable_asynch
 .text.usb_control_msg
                0x000000008080ef14       0x80 common/built-in.o
                0x000000008080ef14                usb_control_msg
 .text.usb_get_descriptor
                0x000000008080ef94       0x36 common/built-in.o
 *fill*         0x000000008080efca        0x2 
 .text.get_descriptor_len
                0x000000008080efcc       0x60 common/built-in.o
 .text.usb_get_string
                0x000000008080f02c       0x50 common/built-in.o
 .text.usb_string_sub
                0x000000008080f07c       0x94 common/built-in.o
 .text.usb_bulk_msg
                0x000000008080f110       0x46 common/built-in.o
                0x000000008080f110                usb_bulk_msg
 .text.usb_maxpacket
                0x000000008080f156       0x1a common/built-in.o
                0x000000008080f156                usb_maxpacket
 .text.usb_clear_halt
                0x000000008080f170       0x5c common/built-in.o
                0x000000008080f170                usb_clear_halt
 .text.usb_get_configuration_len
                0x000000008080f1cc       0x50 common/built-in.o
                0x000000008080f1cc                usb_get_configuration_len
 .text.usb_get_configuration_no
                0x000000008080f21c       0x1c common/built-in.o
                0x000000008080f21c                usb_get_configuration_no
 .text.usb_set_interface
                0x000000008080f238       0x78 common/built-in.o
                0x000000008080f238                usb_set_interface
 .text.usb_string
                0x000000008080f2b0       0x9c common/built-in.o
                0x000000008080f2b0                usb_string
 .text.usb_get_dev_index
                0x000000008080f34c       0x18 common/built-in.o
                0x000000008080f34c                usb_get_dev_index
 .text.usb_alloc_new_device
                0x000000008080f364       0x64 common/built-in.o
                0x000000008080f364                usb_alloc_new_device
 .text.usb_free_device
                0x000000008080f3c8       0x30 common/built-in.o
                0x000000008080f3c8                usb_free_device
 .text.usb_alloc_device
                0x000000008080f3f8        0x4 common/built-in.o
                0x000000008080f3f8                usb_alloc_device
 .text.usb_select_config
                0x000000008080f3fc      0x314 common/built-in.o
                0x000000008080f3fc                usb_select_config
 .text.usb_setup_device
                0x000000008080f710       0xf8 common/built-in.o
                0x000000008080f710                usb_setup_device
 .text.usb_new_device
                0x000000008080f808       0x1e common/built-in.o
                0x000000008080f808                usb_new_device
 *fill*         0x000000008080f826        0x2 
 .text.usb_init
                0x000000008080f828       0xdc common/built-in.o
                0x000000008080f828                usb_init
 .text.board_usb_init
                0x000000008080f904        0x4 common/built-in.o
                0x000000008080f904                board_usb_init
 .text.board_usb_cleanup
                0x000000008080f908        0x4 common/built-in.o
                0x000000008080f908                board_usb_cleanup
 .text.usb_device_has_child_on_port
                0x000000008080f90c       0x10 common/built-in.o
                0x000000008080f90c                usb_device_has_child_on_port
 .text.usb_find_usb2_hub_address_port
                0x000000008080f91c       0x38 common/built-in.o
                0x000000008080f91c                usb_find_usb2_hub_address_port
 .text.usb_set_port_feature
                0x000000008080f954       0x2e common/built-in.o
 .text.usb_clear_port_feature
                0x000000008080f982       0x2e common/built-in.o
 .text.usb_get_hub_descriptor
                0x000000008080f9b0       0x34 common/built-in.o
 .text.usb_hub_reset_devices
                0x000000008080f9e4        0x2 common/built-in.o
                0x000000008080f9e4                usb_hub_reset_devices
 .text.usb_get_port_status
                0x000000008080f9e6       0x30 common/built-in.o
                0x000000008080f9e6                usb_get_port_status
 *fill*         0x000000008080fa16        0x2 
 .text.usb_hub_reset
                0x000000008080fa18       0x18 common/built-in.o
                0x000000008080fa18                usb_hub_reset
 .text.legacy_hub_port_reset
                0x000000008080fa30       0x6a common/built-in.o
                0x000000008080fa30                legacy_hub_port_reset
 *fill*         0x000000008080fa9a        0x2 
 .text.usb_hub_port_connect_change
                0x000000008080fa9c       0xf8 common/built-in.o
                0x000000008080fa9c                usb_hub_port_connect_change
 .text.usb_hub_configure
                0x000000008080fb94      0x338 common/built-in.o
 .text.usb_hub_probe
                0x000000008080fecc       0x3a common/built-in.o
                0x000000008080fecc                usb_hub_probe
 .text.usb_stor_irq
                0x000000008080ff06       0x10 common/built-in.o
 .text.usb_stor_BBB_reset
                0x000000008080ff16       0x8e common/built-in.o
 .text.usb_stor_CB_reset
                0x000000008080ffa4       0x88 common/built-in.o
 .text.usb_stor_BBB_clear_endpt_stall.isra.2
                0x000000008081002c       0x2c common/built-in.o
 .text.usb_stor_BBB_transport
                0x0000000080810058      0x1a0 common/built-in.o
 .text.usb_stor_CB_comdat
                0x00000000808101f8      0x154 common/built-in.o
 .text.usb_stor_CBI_get_status.isra.4
                0x000000008081034c       0x7c common/built-in.o
 .text.usb_stor_CB_transport
                0x00000000808103c8      0x160 common/built-in.o
 .text.usb_request_sense.constprop.10
                0x0000000080810528       0x4c common/built-in.o
 .text.usb_stor_read
                0x0000000080810574       0xf8 common/built-in.o
 .text.usb_stor_write
                0x000000008081066c       0xf8 common/built-in.o
 .text.usb_stor_get_dev
                0x0000000080810764       0x1c common/built-in.o
                0x0000000080810764                usb_stor_get_dev
 .text.usb_stor_info
                0x0000000080810780       0x4c common/built-in.o
                0x0000000080810780                usb_stor_info
 .text.usb_storage_probe
                0x00000000808107cc      0x15c common/built-in.o
                0x00000000808107cc                usb_storage_probe
 .text.usb_stor_get_info
                0x0000000080810928      0x224 common/built-in.o
                0x0000000080810928                usb_stor_get_info
 .text.usb_stor_scan
                0x0000000080810b4c      0x14c common/built-in.o
                0x0000000080810b4c                usb_stor_scan
 .text.menu_display_statusline
                0x0000000080810c98        0x2 common/built-in.o
                0x0000000080810c98                menu_display_statusline
 .text.menu_default_set
                0x0000000080810c9a       0x52 common/built-in.o
                0x0000000080810c9a                menu_default_set
 .text.menu_get_choice
                0x0000000080810cec      0x124 common/built-in.o
                0x0000000080810cec                menu_get_choice
 .text.menu_item_add
                0x0000000080810e10       0x86 common/built-in.o
                0x0000000080810e10                menu_item_add
 .text.menu_create
                0x0000000080810e96       0x54 common/built-in.o
                0x0000000080810e96                menu_create
 .text.menu_destroy
                0x0000000080810eea       0x44 common/built-in.o
                0x0000000080810eea                menu_destroy
 .text.env_get_char_spec
                0x0000000080810f2e        0x8 common/built-in.o
                0x0000000080810f2e                env_get_char_spec
 *fill*         0x0000000080810f36        0x2 
 .text.env_get_addr
                0x0000000080810f38       0x18 common/built-in.o
                0x0000000080810f38                env_get_addr
 .text.env_get_char_memory
                0x0000000080810f50        0xa common/built-in.o
                0x0000000080810f50                env_get_char_memory
 *fill*         0x0000000080810f5a        0x2 
 .text.env_get_char
                0x0000000080810f5c       0x20 common/built-in.o
                0x0000000080810f5c                env_get_char
 .text.getenv_yesno
                0x0000000080810f7c       0x2a common/built-in.o
                0x0000000080810f7c                getenv_yesno
 .text.getenv_default
                0x0000000080810fa6       0x2a common/built-in.o
                0x0000000080810fa6                getenv_default
 .text.set_default_env
                0x0000000080810fd0       0x80 common/built-in.o
                0x0000000080810fd0                set_default_env
 .text.set_default_vars
                0x0000000080811050       0x28 common/built-in.o
                0x0000000080811050                set_default_vars
 .text.env_relocate
                0x0000000080811078        0xe common/built-in.o
                0x0000000080811078                env_relocate
 *fill*         0x0000000080811086        0x2 
 .text.env_complete
                0x0000000080811088       0x8c common/built-in.o
                0x0000000080811088                env_complete
 .text.console_setfile
                0x0000000080811114       0x74 common/built-in.o
 .text.putc     0x0000000080811188       0x24 common/built-in.o
                0x0000000080811188                putc
 .text.puts     0x00000000808111ac       0x24 common/built-in.o
                0x00000000808111ac                puts
 .text.fgetc    0x00000000808111d0       0x18 common/built-in.o
                0x00000000808111d0                fgetc
 .text.getc     0x00000000808111e8       0x1a common/built-in.o
                0x00000000808111e8                getc
 *fill*         0x0000000080811202        0x2 
 .text.ftstc    0x0000000080811204       0x18 common/built-in.o
                0x0000000080811204                ftstc
 .text.tstc     0x000000008081121c       0x1a common/built-in.o
                0x000000008081121c                tstc
 *fill*         0x0000000080811236        0x2 
 .text.ctrlc    0x0000000080811238       0x38 common/built-in.o
                0x0000000080811238                ctrlc
 .text.had_ctrlc
                0x0000000080811270        0xc common/built-in.o
                0x0000000080811270                had_ctrlc
 .text.clear_ctrlc
                0x000000008081127c        0xc common/built-in.o
                0x000000008081127c                clear_ctrlc
 .text.search_device
                0x0000000080811288       0x16 common/built-in.o
                0x0000000080811288                search_device
 .text.console_assign
                0x000000008081129e       0x2a common/built-in.o
                0x000000008081129e                console_assign
 .text.on_console
                0x00000000808112c8       0x70 common/built-in.o
 .text.console_init_f
                0x0000000080811338        0xa common/built-in.o
                0x0000000080811338                console_init_f
 *fill*         0x0000000080811342        0x2 
 .text.console_init_r
                0x0000000080811344       0x88 common/built-in.o
                0x0000000080811344                console_init_r
 .text.sbrk     0x00000000808113cc       0x44 common/built-in.o
                0x00000000808113cc                sbrk
 .text.mem_malloc_init
                0x0000000080811410       0x28 common/built-in.o
                0x0000000080811410                mem_malloc_init
 .text.malloc_trim
                0x0000000080811438       0x80 common/built-in.o
                0x0000000080811438                malloc_trim
 .text.free     0x00000000808114b8      0x168 common/built-in.o
                0x00000000808114b8                free
 .text.malloc   0x0000000080811620      0x3fc common/built-in.o
                0x0000000080811620                malloc
 .text.calloc   0x0000000080811a1c       0xbc common/built-in.o
                0x0000000080811a1c                calloc
 .text.realloc  0x0000000080811ad8      0x2e4 common/built-in.o
                0x0000000080811ad8                realloc
 .text.memalign
                0x0000000080811dbc       0xe6 common/built-in.o
                0x0000000080811dbc                memalign
 .text.initf_malloc
                0x0000000080811ea2       0x14 common/built-in.o
                0x0000000080811ea2                initf_malloc
 .text.malloc_simple
                0x0000000080811eb6       0x28 common/built-in.o
                0x0000000080811eb6                malloc_simple
 *fill*         0x0000000080811ede        0x2 
 .text.on_loadaddr
                0x0000000080811ee0       0x20 common/built-in.o
 .text.image_check_hcrc
                0x0000000080811f00       0x2a common/built-in.o
                0x0000000080811f00                image_check_hcrc
 .text.image_check_dcrc
                0x0000000080811f2a       0x22 common/built-in.o
                0x0000000080811f2a                image_check_dcrc
 .text.image_multi_count
                0x0000000080811f4c       0x12 common/built-in.o
                0x0000000080811f4c                image_multi_count
 .text.image_multi_getimg
                0x0000000080811f5e       0x4c common/built-in.o
                0x0000000080811f5e                image_multi_getimg
 *fill*         0x0000000080811faa        0x2 
 .text.getenv_bootm_low
                0x0000000080811fac       0x20 common/built-in.o
                0x0000000080811fac                getenv_bootm_low
 .text.getenv_bootm_size
                0x0000000080811fcc       0x44 common/built-in.o
                0x0000000080811fcc                getenv_bootm_size
 .text.getenv_bootm_mapsize
                0x0000000080812010       0x20 common/built-in.o
                0x0000000080812010                getenv_bootm_mapsize
 .text.memmove_wd
                0x0000000080812030       0x4c common/built-in.o
                0x0000000080812030                memmove_wd
 .text.genimg_print_size
                0x000000008081207c       0x24 common/built-in.o
                0x000000008081207c                genimg_print_size
 .text.get_table_entry
                0x00000000808120a0       0x12 common/built-in.o
                0x00000000808120a0                get_table_entry
 .text.get_table_entry_name
                0x00000000808120b2       0x14 common/built-in.o
                0x00000000808120b2                get_table_entry_name
 *fill*         0x00000000808120c6        0x2 
 .text.genimg_get_os_name
                0x00000000808120c8       0x14 common/built-in.o
                0x00000000808120c8                genimg_get_os_name
 .text.genimg_get_arch_name
                0x00000000808120dc       0x14 common/built-in.o
                0x00000000808120dc                genimg_get_arch_name
 .text.genimg_get_type_name
                0x00000000808120f0       0x14 common/built-in.o
                0x00000000808120f0                genimg_get_type_name
 .text.genimg_get_comp_name
                0x0000000080812104       0x14 common/built-in.o
                0x0000000080812104                genimg_get_comp_name
 .text.image_print_contents
                0x0000000080812118       0xf8 common/built-in.o
                0x0000000080812118                image_print_contents
 .text.get_table_entry_id
                0x0000000080812210       0x26 common/built-in.o
                0x0000000080812210                get_table_entry_id
 *fill*         0x0000000080812236        0x2 
 .text.genimg_get_os_id
                0x0000000080812238       0x14 common/built-in.o
                0x0000000080812238                genimg_get_os_id
 .text.genimg_get_arch_id
                0x000000008081224c       0x14 common/built-in.o
                0x000000008081224c                genimg_get_arch_id
 .text.genimg_get_type_id
                0x0000000080812260       0x14 common/built-in.o
                0x0000000080812260                genimg_get_type_id
 .text.genimg_get_comp_id
                0x0000000080812274       0x14 common/built-in.o
                0x0000000080812274                genimg_get_comp_id
 .text.genimg_get_kernel_addr_fit
                0x0000000080812288       0x40 common/built-in.o
                0x0000000080812288                genimg_get_kernel_addr_fit
 .text.genimg_get_kernel_addr
                0x00000000808122c8       0x18 common/built-in.o
                0x00000000808122c8                genimg_get_kernel_addr
 .text.genimg_get_format
                0x00000000808122e0       0x20 common/built-in.o
                0x00000000808122e0                genimg_get_format
 .text.genimg_get_image
                0x0000000080812300        0x2 common/built-in.o
                0x0000000080812300                genimg_get_image
 .text.genimg_has_config
                0x0000000080812302        0xa common/built-in.o
                0x0000000080812302                genimg_has_config
 .text.boot_get_ramdisk
                0x000000008081230c      0x230 common/built-in.o
                0x000000008081230c                boot_get_ramdisk
 .text.boot_ramdisk_high
                0x000000008081253c       0xcc common/built-in.o
                0x000000008081253c                boot_ramdisk_high
 .text.boot_get_setup
                0x0000000080812608        0x4 common/built-in.o
                0x0000000080812608                boot_get_setup
 .text.boot_get_loadable
                0x000000008081260c       0x88 common/built-in.o
                0x000000008081260c                boot_get_loadable
 .text.image_setup_linux
                0x0000000080812694       0x5c common/built-in.o
                0x0000000080812694                image_setup_linux
 .text.fdt_error
                0x00000000808126f0       0x24 common/built-in.o
 .text.boot_fdt_add_mem_rsv_regions
                0x0000000080812714       0x5c common/built-in.o
                0x0000000080812714                boot_fdt_add_mem_rsv_regions
 .text.boot_relocate_fdt
                0x0000000080812770      0x10c common/built-in.o
                0x0000000080812770                boot_relocate_fdt
 .text.boot_get_fdt
                0x000000008081287c      0x25c common/built-in.o
                0x000000008081287c                boot_get_fdt
 .text.ft_verify_fdt
                0x0000000080812ad8        0x4 common/built-in.o
                0x0000000080812ad8                ft_verify_fdt
 .text.image_setup_libfdt
                0x0000000080812adc       0xcc common/built-in.o
                0x0000000080812adc                image_setup_libfdt
 .text.fit_image_get_address
                0x0000000080812ba8       0x3c common/built-in.o
 .text.fit_parse_conf
                0x0000000080812be4       0x3e common/built-in.o
                0x0000000080812be4                fit_parse_conf
 .text.fit_parse_subimage
                0x0000000080812c22       0x3e common/built-in.o
                0x0000000080812c22                fit_parse_subimage
 .text.fit_get_desc
                0x0000000080812c60       0x20 common/built-in.o
                0x0000000080812c60                fit_get_desc
 .text.fit_image_get_node
                0x0000000080812c80       0x24 common/built-in.o
                0x0000000080812c80                fit_image_get_node
 .text.fit_image_get_os
                0x0000000080812ca4       0x28 common/built-in.o
                0x0000000080812ca4                fit_image_get_os
 .text.fit_image_get_arch
                0x0000000080812ccc       0x28 common/built-in.o
                0x0000000080812ccc                fit_image_get_arch
 .text.fit_image_get_type
                0x0000000080812cf4       0x28 common/built-in.o
                0x0000000080812cf4                fit_image_get_type
 .text.fit_image_get_comp
                0x0000000080812d1c       0x28 common/built-in.o
                0x0000000080812d1c                fit_image_get_comp
 .text.fit_image_get_load
                0x0000000080812d44        0xc common/built-in.o
                0x0000000080812d44                fit_image_get_load
 .text.fit_image_get_entry
                0x0000000080812d50        0xc common/built-in.o
                0x0000000080812d50                fit_image_get_entry
 .text.fit_image_get_data
                0x0000000080812d5c       0x28 common/built-in.o
                0x0000000080812d5c                fit_image_get_data
 .text.fit_image_hash_get_algo
                0x0000000080812d84       0x20 common/built-in.o
                0x0000000080812d84                fit_image_hash_get_algo
 .text.fit_image_hash_get_value
                0x0000000080812da4       0x28 common/built-in.o
                0x0000000080812da4                fit_image_hash_get_value
 .text.fit_image_print_data
                0x0000000080812dcc       0xd8 common/built-in.o
 .text.fit_image_print
                0x0000000080812ea4      0x224 common/built-in.o
                0x0000000080812ea4                fit_image_print
 .text.fit_get_end
                0x00000000808130c8        0x8 common/built-in.o
                0x00000000808130c8                fit_get_end
 .text.calculate_hash
                0x00000000808130d0       0xa8 common/built-in.o
                0x00000000808130d0                calculate_hash
 .text.fit_image_verify
                0x0000000080813178      0x158 common/built-in.o
                0x0000000080813178                fit_image_verify
 .text.fit_all_image_verify
                0x00000000808132d0       0xa4 common/built-in.o
                0x00000000808132d0                fit_all_image_verify
 .text.fit_image_check_os
                0x0000000080813374       0x20 common/built-in.o
                0x0000000080813374                fit_image_check_os
 .text.fit_image_check_arch
                0x0000000080813394       0x2c common/built-in.o
                0x0000000080813394                fit_image_check_arch
 .text.fit_image_check_type
                0x00000000808133c0       0x20 common/built-in.o
                0x00000000808133c0                fit_image_check_type
 .text.fit_image_check_comp
                0x00000000808133e0       0x20 common/built-in.o
                0x00000000808133e0                fit_image_check_comp
 .text.fit_check_format
                0x0000000080813400       0x28 common/built-in.o
                0x0000000080813400                fit_check_format
 .text.fit_conf_get_node
                0x0000000080813428       0x40 common/built-in.o
                0x0000000080813428                fit_conf_get_node
 .text.fit_conf_get_prop_node
                0x0000000080813468       0x1c common/built-in.o
                0x0000000080813468                fit_conf_get_prop_node
 .text.fit_conf_print
                0x0000000080813484       0xf8 common/built-in.o
                0x0000000080813484                fit_conf_print
 .text.fit_print_contents
                0x000000008081357c      0x154 common/built-in.o
                0x000000008081357c                fit_print_contents
 .text.fit_get_node_from_config
                0x00000000808136d0       0x2a common/built-in.o
                0x00000000808136d0                fit_get_node_from_config
 *fill*         0x00000000808136fa        0x2 
 .text.fit_image_load
                0x00000000808136fc      0x368 common/built-in.o
                0x00000000808136fc                fit_image_load
 .text.boot_get_setup_fit
                0x0000000080813a64       0x40 common/built-in.o
                0x0000000080813a64                boot_get_setup_fit
 .text.get_ram_size
                0x0000000080813aa4       0x90 common/built-in.o
                0x0000000080813aa4                get_ram_size
 .text.get_effective_memsize
                0x0000000080813b34        0x6 common/built-in.o
                0x0000000080813b34                get_effective_memsize
 .text.stdio_serial_tstc
                0x0000000080813b3a        0x4 common/built-in.o
 .text.stdio_serial_getc
                0x0000000080813b3e        0x4 common/built-in.o
 .text.stdio_serial_puts
                0x0000000080813b42        0x6 common/built-in.o
 .text.stdio_serial_putc
                0x0000000080813b48        0x6 common/built-in.o
 *fill*         0x0000000080813b4e        0x2 
 .text.stdio_get_list
                0x0000000080813b50        0x8 common/built-in.o
                0x0000000080813b50                stdio_get_list
 .text.stdio_get_by_name
                0x0000000080813b58       0x30 common/built-in.o
                0x0000000080813b58                stdio_get_by_name
 .text.stdio_clone
                0x0000000080813b88       0x22 common/built-in.o
                0x0000000080813b88                stdio_clone
 *fill*         0x0000000080813baa        0x2 
 .text.stdio_register_dev
                0x0000000080813bac       0x30 common/built-in.o
                0x0000000080813bac                stdio_register_dev
 .text.stdio_register
                0x0000000080813bdc        0x6 common/built-in.o
                0x0000000080813bdc                stdio_register
 *fill*         0x0000000080813be2        0x2 
 .text.stdio_init_tables
                0x0000000080813be4       0x14 common/built-in.o
                0x0000000080813be4                stdio_init_tables
 .text.stdio_add_devices
                0x0000000080813bf8       0x54 common/built-in.o
                0x0000000080813bf8                stdio_add_devices
 .text.cli_simple_process_macros
                0x0000000080813c4c      0x124 common/built-in.o
                0x0000000080813c4c                cli_simple_process_macros
 .text.run_command
                0x0000000080813d70        0xe common/built-in.o
                0x0000000080813d70                run_command
 .text.run_command_list
                0x0000000080813d7e       0x46 common/built-in.o
                0x0000000080813d7e                run_command_list
 .text.do_run   0x0000000080813dc4       0x50 common/built-in.o
                0x0000000080813dc4                do_run
 .text.cli_loop
                0x0000000080813e14        0x8 common/built-in.o
                0x0000000080813e14                cli_loop
 .text.cli_init
                0x0000000080813e1c        0x4 common/built-in.o
                0x0000000080813e1c                cli_init
 .text.delete_char.part.0
                0x0000000080813e20       0x88 common/built-in.o
 .text.cread_add_char
                0x0000000080813ea8       0x80 common/built-in.o
 .text.cli_readline_into_buffer
                0x0000000080813f28      0x62c common/built-in.o
                0x0000000080813f28                cli_readline_into_buffer
 .text.cli_readline
                0x0000000080814554       0x10 common/built-in.o
                0x0000000080814554                cli_readline
 .text.find_cmd_tbl
                0x0000000080814564       0x64 common/built-in.o
                0x0000000080814564                find_cmd_tbl
 .text.find_cmd
                0x00000000808145c8       0x1c common/built-in.o
                0x00000000808145c8                find_cmd
 .text.cmd_usage
                0x00000000808145e4       0x3c common/built-in.o
                0x00000000808145e4                cmd_usage
 .text._do_help
                0x0000000080814620      0x104 common/built-in.o
                0x0000000080814620                _do_help
 .text.var_complete
                0x0000000080814724       0x48 common/built-in.o
                0x0000000080814724                var_complete
 .text.cmd_auto_complete
                0x000000008081476c      0x2f0 common/built-in.o
                0x000000008081476c                cmd_auto_complete
 .text.cmd_get_data_size
                0x0000000080814a5c       0x38 common/built-in.o
                0x0000000080814a5c                cmd_get_data_size
 .text.cmd_process
                0x0000000080814a94       0x94 common/built-in.o
                0x0000000080814a94                cmd_process
 .text.cmd_process_error
                0x0000000080814b28       0x1c common/built-in.o
                0x0000000080814b28                cmd_process_error
 .text.hex1_bin
                0x0000000080814b44       0x2a common/built-in.o
 .text.hex2_bin
                0x0000000080814b6e       0x24 common/built-in.o
 .text.srec_decode
                0x0000000080814b92      0x186 common/built-in.o
                0x0000000080814b92                srec_decode
 .text.CYGACC_COMM_IF_GETC_TIMEOUT.isra.0
                0x0000000080814d18       0x2c common/built-in.o
 .text.xyzModem_flush
                0x0000000080814d44       0x14 common/built-in.o
 .text.xyzModem_get_hdr
                0x0000000080814d58      0x170 common/built-in.o
 .text.xyzModem_stream_open
                0x0000000080814ec8      0x17c common/built-in.o
                0x0000000080814ec8                xyzModem_stream_open
 .text.xyzModem_stream_read
                0x0000000080815044      0x1c0 common/built-in.o
                0x0000000080815044                xyzModem_stream_read
 .text.xyzModem_stream_close
                0x0000000080815204       0x40 common/built-in.o
                0x0000000080815204                xyzModem_stream_close
 .text.xyzModem_stream_terminate
                0x0000000080815244       0x68 common/built-in.o
                0x0000000080815244                xyzModem_stream_terminate
 .text.xyzModem_error
                0x00000000808152ac       0x18 common/built-in.o
                0x00000000808152ac                xyzModem_error
 .text.get_dev_hwpart
                0x00000000808152c4       0x64 disk/built-in.o
 .text.blk_get_dev
                0x0000000080815328        0x6 disk/built-in.o
                0x0000000080815328                blk_get_dev
 *fill*         0x000000008081532e        0x2 
 .text.dev_print
                0x0000000080815330      0x154 disk/built-in.o
                0x0000000080815330                dev_print
 .text.part_init
                0x0000000080815484       0x2c disk/built-in.o
                0x0000000080815484                part_init
 .text.part_print
                0x00000000808154b0       0xb8 disk/built-in.o
                0x00000000808154b0                part_print
 .text.part_get_info
                0x0000000080815568       0x44 disk/built-in.o
                0x0000000080815568                part_get_info
 .text.blk_get_device_by_str
                0x00000000808155ac       0xb0 disk/built-in.o
                0x00000000808155ac                blk_get_device_by_str
 .text.blk_get_device_part_str
                0x000000008081565c      0x2b0 disk/built-in.o
                0x000000008081565c                blk_get_device_part_str
 .text.test_block_type
                0x000000008081590c       0x50 disk/built-in.o
 .text.print_partition_extended
                0x000000008081595c      0x1b8 disk/built-in.o
 .text.part_print_dos
                0x0000000080815b14       0x20 disk/built-in.o
                0x0000000080815b14                part_print_dos
 .text.part_test_dos
                0x0000000080815b34       0x40 disk/built-in.o
 .text.part_get_info_extended
                0x0000000080815b74      0x23c disk/built-in.o
 .text.part_get_info_dos
                0x0000000080815db0       0x16 disk/built-in.o
                0x0000000080815db0                part_get_info_dos
 .text.iso_dread
                0x0000000080815dc6       0x22 disk/built-in.o
                0x0000000080815dc6                iso_dread
 .text.part_get_info_iso_verb
                0x0000000080815de8      0x2cc disk/built-in.o
                0x0000000080815de8                part_get_info_iso_verb
 .text.part_test_iso
                0x00000000808160b4       0x14 disk/built-in.o
 .text.part_print_iso
                0x00000000808160c8       0x60 disk/built-in.o
 .text.part_get_info_iso
                0x0000000080816128        0x6 disk/built-in.o
 *fill*         0x000000008081612e        0x2 
 .text.print_efiname
                0x0000000080816130       0x38 disk/built-in.o
 .text.part_test_efi
                0x0000000080816168       0x76 disk/built-in.o
 *fill*         0x00000000808161de        0x2 
 .text.set_protective_mbr
                0x00000000808161e0       0x7c disk/built-in.o
 .text.validate_gpt_entries
                0x000000008081625c       0x80 disk/built-in.o
 *fill*         0x00000000808162dc        0x4 
 .text.validate_gpt_header
                0x00000000808162e0      0x1a0 disk/built-in.o
 .text.is_gpt_valid
                0x0000000080816480      0x138 disk/built-in.o
 .text.is_pte_valid
                0x00000000808165b8       0x38 disk/built-in.o
 .text.part_print_efi
                0x00000000808165f0      0x1fc disk/built-in.o
                0x00000000808165f0                part_print_efi
 .text.part_get_info_efi
                0x00000000808167ec      0x174 disk/built-in.o
                0x00000000808167ec                part_get_info_efi
 .text.write_gpt_table
                0x0000000080816960      0x2bc disk/built-in.o
                0x0000000080816960                write_gpt_table
 .text.gpt_fill_pte
                0x0000000080816c1c      0x220 disk/built-in.o
                0x0000000080816c1c                gpt_fill_pte
 .text.gpt_fill_header
                0x0000000080816e3c      0x136 disk/built-in.o
                0x0000000080816e3c                gpt_fill_header
 *fill*         0x0000000080816f72        0x2 
 .text.gpt_restore
                0x0000000080816f74       0xa4 disk/built-in.o
                0x0000000080816f74                gpt_restore
 .text.gpt_verify_headers
                0x0000000080817018       0x54 disk/built-in.o
                0x0000000080817018                gpt_verify_headers
 .text.gpt_verify_partitions
                0x000000008081706c      0x1a8 disk/built-in.o
                0x000000008081706c                gpt_verify_partitions
 .text.alloc_priv
                0x0000000080817214       0x2e drivers/built-in.o
 *fill*         0x0000000080817242        0x2 
 .text.device_bind
                0x0000000080817244      0x1d0 drivers/built-in.o
                0x0000000080817244                device_bind
 .text.device_bind_by_name
                0x0000000080817414       0x3e drivers/built-in.o
                0x0000000080817414                device_bind_by_name
 *fill*         0x0000000080817452        0x2 
 .text.device_probe
                0x0000000080817454      0x134 drivers/built-in.o
                0x0000000080817454                device_probe
 .text.dev_get_platdata
                0x0000000080817588       0x20 drivers/built-in.o
                0x0000000080817588                dev_get_platdata
 .text.dev_get_priv
                0x00000000808175a8       0x20 drivers/built-in.o
                0x00000000808175a8                dev_get_priv
 .text.dev_get_uclass_priv
                0x00000000808175c8       0x20 drivers/built-in.o
                0x00000000808175c8                dev_get_uclass_priv
 .text.dev_get_addr
                0x00000000808175e8        0x6 drivers/built-in.o
                0x00000000808175e8                dev_get_addr
 *fill*         0x00000000808175ee        0x2 
 .text.lists_driver_lookup_name
                0x00000000808175f0       0x2c drivers/built-in.o
                0x00000000808175f0                lists_driver_lookup_name
 .text.lists_uclass_lookup
                0x000000008081761c       0x24 drivers/built-in.o
                0x000000008081761c                lists_uclass_lookup
 .text.lists_bind_drivers
                0x0000000080817640       0x58 drivers/built-in.o
                0x0000000080817640                lists_bind_drivers
 .text.dm_root  0x0000000080817698       0x1c drivers/built-in.o
                0x0000000080817698                dm_root
 .text.dm_init  0x00000000808176b4       0x44 drivers/built-in.o
                0x00000000808176b4                dm_init
 .text.dm_scan_platdata
                0x00000000808176f8       0x20 drivers/built-in.o
                0x00000000808176f8                dm_scan_platdata
 .text.dm_scan_other
                0x0000000080817718        0x4 drivers/built-in.o
                0x0000000080817718                dm_scan_other
 .text.dm_init_and_scan
                0x000000008081771c       0x1e drivers/built-in.o
                0x000000008081771c                dm_init_and_scan
 .text.uclass_find
                0x000000008081773a       0x2a drivers/built-in.o
                0x000000008081773a                uclass_find
 .text.uclass_get
                0x0000000080817764       0xaa drivers/built-in.o
                0x0000000080817764                uclass_get
 .text.uclass_find_device
                0x000000008081780e       0x40 drivers/built-in.o
                0x000000008081780e                uclass_find_device
 .text.uclass_find_first_device
                0x000000008081784e       0x22 drivers/built-in.o
                0x000000008081784e                uclass_find_first_device
 .text.uclass_find_next_device
                0x0000000080817870       0x18 drivers/built-in.o
                0x0000000080817870                uclass_find_next_device
 .text.uclass_find_device_by_seq
                0x0000000080817888       0x4a drivers/built-in.o
                0x0000000080817888                uclass_find_device_by_seq
 .text.uclass_get_device_tail
                0x00000000808178d2       0x16 drivers/built-in.o
                0x00000000808178d2                uclass_get_device_tail
 .text.uclass_get_device
                0x00000000808178e8       0x1c drivers/built-in.o
                0x00000000808178e8                uclass_get_device
 .text.uclass_get_device_by_seq
                0x0000000080817904       0x32 drivers/built-in.o
                0x0000000080817904                uclass_get_device_by_seq
 .text.uclass_first_device
                0x0000000080817936       0x1e drivers/built-in.o
                0x0000000080817936                uclass_first_device
 .text.uclass_next_device
                0x0000000080817954       0x24 drivers/built-in.o
                0x0000000080817954                uclass_next_device
 .text.uclass_bind_device
                0x0000000080817978       0x3a drivers/built-in.o
                0x0000000080817978                uclass_bind_device
 .text.uclass_unbind_device
                0x00000000808179b2       0x24 drivers/built-in.o
                0x00000000808179b2                uclass_unbind_device
 *fill*         0x00000000808179d6        0x2 
 .text.uclass_resolve_seq
                0x00000000808179d8       0x64 drivers/built-in.o
                0x00000000808179d8                uclass_resolve_seq
 .text.uclass_pre_probe_device
                0x0000000080817a3c       0x2e drivers/built-in.o
                0x0000000080817a3c                uclass_pre_probe_device
 .text.uclass_post_probe_device
                0x0000000080817a6a        0xe drivers/built-in.o
                0x0000000080817a6a                uclass_post_probe_device
 .text.uclass_pre_remove_device
                0x0000000080817a78        0xe drivers/built-in.o
                0x0000000080817a78                uclass_pre_remove_device
 .text.dm_warn  0x0000000080817a86       0x1a drivers/built-in.o
                0x0000000080817a86                dm_warn
 .text.device_free
                0x0000000080817aa0       0x44 drivers/built-in.o
                0x0000000080817aa0                device_free
 .text.device_remove
                0x0000000080817ae4       0xcc drivers/built-in.o
                0x0000000080817ae4                device_remove
 .text.show_devices
                0x0000000080817bb0       0xb4 drivers/built-in.o
 .text.dm_dump_all
                0x0000000080817c64       0x30 drivers/built-in.o
                0x0000000080817c64                dm_dump_all
 .text.dm_dump_uclass
                0x0000000080817c94       0x98 drivers/built-in.o
                0x0000000080817c94                dm_dump_uclass
 .text.bootcount_store
                0x0000000080817d2c       0x38 drivers/built-in.o
                0x0000000080817d40                bootcount_store
 .text.bootcount_load
                0x0000000080817d64       0x3c drivers/built-in.o
                0x0000000080817d84                bootcount_load
 .text.mod_exp_sw
                0x0000000080817da0        0xc drivers/built-in.o
                0x0000000080817da0                mod_exp_sw
 .text.hw_watchdog_reset
                0x0000000080817dac       0x24 drivers/built-in.o
                0x0000000080817dac                hw_watchdog_reset
 .text.hw_watchdog_init
                0x0000000080817dd0       0x48 drivers/built-in.o
                0x0000000080817dd0                hw_watchdog_init
 .text.gpio_to_device
                0x0000000080817e18       0x48 drivers/gpio/built-in.o
 .text.check_reserved
                0x0000000080817e60       0x4c drivers/gpio/built-in.o
 .text.gpio_renumber
                0x0000000080817eac       0x44 drivers/gpio/built-in.o
 .text.gpio_pre_remove
                0x0000000080817ef0       0x32 drivers/gpio/built-in.o
 .text.gpio_post_probe
                0x0000000080817f22       0x24 drivers/gpio/built-in.o
 *fill*         0x0000000080817f46        0x2 
 .text.dm_gpio_lookup_name
                0x0000000080817f48       0xa0 drivers/gpio/built-in.o
                0x0000000080817f48                dm_gpio_lookup_name
 .text.gpio_lookup_name
                0x0000000080817fe8       0x3c drivers/gpio/built-in.o
                0x0000000080817fe8                gpio_lookup_name
 .text.dm_gpio_request
                0x0000000080818024       0x64 drivers/gpio/built-in.o
                0x0000000080818024                dm_gpio_request
 .text.gpio_request
                0x0000000080818088       0x18 drivers/gpio/built-in.o
                0x0000000080818088                gpio_request
 .text._dm_gpio_free
                0x00000000808180a0       0x42 drivers/gpio/built-in.o
                0x00000000808180a0                _dm_gpio_free
 .text.gpio_free
                0x00000000808180e2       0x18 drivers/gpio/built-in.o
                0x00000000808180e2                gpio_free
 *fill*         0x00000000808180fa        0x2 
 .text.gpio_direction_input
                0x00000000808180fc       0x2c drivers/gpio/built-in.o
                0x00000000808180fc                gpio_direction_input
 .text.gpio_direction_output
                0x0000000080818128       0x2c drivers/gpio/built-in.o
                0x0000000080818128                gpio_direction_output
 .text.dm_gpio_get_value
                0x0000000080818154       0x2c drivers/gpio/built-in.o
                0x0000000080818154                dm_gpio_get_value
 .text.gpio_get_value
                0x0000000080818180       0x16 drivers/gpio/built-in.o
                0x0000000080818180                gpio_get_value
 .text.gpio_get_bank_info
                0x0000000080818196       0x10 drivers/gpio/built-in.o
                0x0000000080818196                gpio_get_bank_info
 .text.get_function
                0x00000000808181a6       0x5e drivers/gpio/built-in.o
                0x00000000808181a6                get_function
 .text.gpio_get_function
                0x0000000080818204        0x8 drivers/gpio/built-in.o
                0x0000000080818204                gpio_get_function
 .text.gpio_get_raw_function
                0x000000008081820c        0x8 drivers/gpio/built-in.o
                0x000000008081820c                gpio_get_raw_function
 .text.gpio_get_status
                0x0000000080818214       0xb8 drivers/gpio/built-in.o
                0x0000000080818214                gpio_get_status
 .text.omap_gpio_xlate
                0x00000000808182cc       0x16 drivers/gpio/built-in.o
 .text.omap_gpio_get_value
                0x00000000808182e2       0x2c drivers/gpio/built-in.o
 .text.omap_gpio_direction_output
                0x000000008081830e       0x30 drivers/gpio/built-in.o
 .text.omap_gpio_probe
                0x000000008081833e       0x28 drivers/gpio/built-in.o
 .text.omap_gpio_bind
                0x0000000080818366       0x40 drivers/gpio/built-in.o
 .text.omap_gpio_direction_input
                0x00000000808183a6       0x1e drivers/gpio/built-in.o
 .text.omap_gpio_get_function
                0x00000000808183c4       0x1e drivers/gpio/built-in.o
 .text.omap_gpio_set_value
                0x00000000808183e2       0x24 drivers/gpio/built-in.o
 *fill*         0x0000000080818406        0x2 
 .text.i2c_get_adapter
                0x0000000080818408       0x40 drivers/i2c/built-in.o
                0x0000000080818408                i2c_get_adapter
 .text.i2c_init_bus
                0x0000000080818448       0x64 drivers/i2c/built-in.o
 .text.i2c_get_bus_num
                0x00000000808184ac        0x6 drivers/i2c/built-in.o
                0x00000000808184ac                i2c_get_bus_num
 *fill*         0x00000000808184b2        0x2 
 .text.i2c_set_bus_num
                0x00000000808184b4       0x80 drivers/i2c/built-in.o
                0x00000000808184b4                i2c_set_bus_num
 .text.i2c_init_all
                0x0000000080818534       0x10 drivers/i2c/built-in.o
                0x0000000080818534                i2c_init_all
 .text.i2c_probe
                0x0000000080818544       0x20 drivers/i2c/built-in.o
                0x0000000080818544                i2c_probe
 .text.i2c_read
                0x0000000080818564       0x34 drivers/i2c/built-in.o
                0x0000000080818564                i2c_read
 .text.i2c_write
                0x0000000080818598       0x34 drivers/i2c/built-in.o
                0x0000000080818598                i2c_write
 .text.i2c_set_bus_speed
                0x00000000808185cc       0x44 drivers/i2c/built-in.o
                0x00000000808185cc                i2c_set_bus_speed
 .text.i2c_get_bus_speed
                0x0000000080818610        0xe drivers/i2c/built-in.o
                0x0000000080818610                i2c_get_bus_speed
 .text.i2c_init
                0x000000008081861e        0xe drivers/i2c/built-in.o
                0x000000008081861e                i2c_init
 .text.omap24_get_base.isra.0
                0x000000008081862c       0x34 drivers/i2c/built-in.o
 .text.omap24_i2c_setspeed
                0x0000000080818660       0xbc drivers/i2c/built-in.o
 .text.wait_for_bb
                0x000000008081871c       0x4c drivers/i2c/built-in.o
 .text.wait_for_event
                0x0000000080818768       0x50 drivers/i2c/built-in.o
 .text.flush_fifo
                0x00000000808187b8       0x24 drivers/i2c/built-in.o
 .text.omap24_i2c_write
                0x00000000808187dc      0x170 drivers/i2c/built-in.o
 .text.omap24_i2c_read
                0x000000008081894c      0x14c drivers/i2c/built-in.o
 .text.omap24_i2c_probe
                0x0000000080818a98       0x90 drivers/i2c/built-in.o
 .text.omap24_i2c_init
                0x0000000080818b28      0x154 drivers/i2c/built-in.o
 .text.mmc_set_ios
                0x0000000080818c7c        0xc drivers/mmc/built-in.o
 .text.mmc_set_capacity
                0x0000000080818c88       0x68 drivers/mmc/built-in.o
 .text.board_mmc_getwp
                0x0000000080818cf0        0x6 drivers/mmc/built-in.o
                0x0000000080818cf0                board_mmc_getwp
 .text.mmc_getwp
                0x0000000080818cf6       0x20 drivers/mmc/built-in.o
                0x0000000080818cf6                mmc_getwp
 .text.board_mmc_getcd
                0x0000000080818d16        0x6 drivers/mmc/built-in.o
                0x0000000080818d16                board_mmc_getcd
 .text.mmc_send_cmd
                0x0000000080818d1c        0x8 drivers/mmc/built-in.o
                0x0000000080818d1c                mmc_send_cmd
 .text.mmc_send_ext_csd
                0x0000000080818d24       0x2e drivers/mmc/built-in.o
 .text.mmc_go_idle
                0x0000000080818d52       0x32 drivers/mmc/built-in.o
 .text.mmc_send_op_cond_iter
                0x0000000080818d84       0x44 drivers/mmc/built-in.o
 .text.mmc_send_status
                0x0000000080818dc8       0x90 drivers/mmc/built-in.o
                0x0000000080818dc8                mmc_send_status
 .text.mmc_switch.isra.0
                0x0000000080818e58       0x34 drivers/mmc/built-in.o
 .text.mmc_select_bus_width
                0x0000000080818e8c       0xc8 drivers/mmc/built-in.o
 .text.mmc_set_blocklen
                0x0000000080818f54       0x26 drivers/mmc/built-in.o
                0x0000000080818f54                mmc_set_blocklen
 *fill*         0x0000000080818f7a        0x2 
 .text.find_mmc_device
                0x0000000080818f7c       0x30 drivers/mmc/built-in.o
                0x0000000080818f7c                find_mmc_device
 .text.mmc_switch_part
                0x0000000080818fac       0x40 drivers/mmc/built-in.o
                0x0000000080818fac                mmc_switch_part
 .text.mmc_select_hwpart
                0x0000000080818fec       0x44 drivers/mmc/built-in.o
                0x0000000080818fec                mmc_select_hwpart
 .text.mmc_bread
                0x0000000080819030       0xe0 drivers/mmc/built-in.o
 .text.mmc_hwpart_config
                0x0000000080819110      0x2c4 drivers/mmc/built-in.o
                0x0000000080819110                mmc_hwpart_config
 .text.mmc_getcd
                0x00000000808193d4       0x20 drivers/mmc/built-in.o
                0x00000000808193d4                mmc_getcd
 .text.mmc_set_clock
                0x00000000808193f4       0x1c drivers/mmc/built-in.o
                0x00000000808193f4                mmc_set_clock
 .text.mmc_startup
                0x0000000080819410      0x904 drivers/mmc/built-in.o
 .text.mmc_create
                0x0000000080819d14       0x98 drivers/mmc/built-in.o
                0x0000000080819d14                mmc_create
 .text.board_mmc_power_init
                0x0000000080819dac        0x2 drivers/mmc/built-in.o
                0x0000000080819dac                board_mmc_power_init
 *fill*         0x0000000080819dae        0x2 
 .text.mmc_start_init
                0x0000000080819db0      0x184 drivers/mmc/built-in.o
                0x0000000080819db0                mmc_start_init
 .text.mmc_init
                0x0000000080819f34       0x94 drivers/mmc/built-in.o
                0x0000000080819f34                mmc_init
 .text.mmc_get_dev
                0x0000000080819fc8       0x1c drivers/mmc/built-in.o
                0x0000000080819fc8                mmc_get_dev
 .text.mmc_set_dsr
                0x0000000080819fe4        0x6 drivers/mmc/built-in.o
                0x0000000080819fe4                mmc_set_dsr
 .text.board_mmc_init
                0x0000000080819fea        0x6 drivers/mmc/built-in.o
                0x0000000080819fea                board_mmc_init
 .text.print_mmc_devices
                0x0000000080819ff0       0x84 drivers/mmc/built-in.o
                0x0000000080819ff0                print_mmc_devices
 .text.get_mmc_num
                0x000000008081a074        0xc drivers/mmc/built-in.o
                0x000000008081a074                get_mmc_num
 .text.mmc_initialize
                0x000000008081a080       0x54 drivers/mmc/built-in.o
                0x000000008081a080                mmc_initialize
 .text.mmc_boot_partition_size_change
                0x000000008081a0d4       0x7c drivers/mmc/built-in.o
                0x000000008081a0d4                mmc_boot_partition_size_change
 .text.mmc_set_boot_bus_width
                0x000000008081a150       0x10 drivers/mmc/built-in.o
                0x000000008081a150                mmc_set_boot_bus_width
 .text.mmc_set_part_conf
                0x000000008081a160       0x10 drivers/mmc/built-in.o
                0x000000008081a160                mmc_set_part_conf
 .text.mmc_set_rst_n_function
                0x000000008081a170        0x8 drivers/mmc/built-in.o
                0x000000008081a170                mmc_set_rst_n_function
 .text.omap_hsmmc_set_ios
                0x000000008081a178       0xf8 drivers/mmc/built-in.o
 .text.omap_hsmmc_getwp
                0x000000008081a270       0x10 drivers/mmc/built-in.o
 .text.omap_hsmmc_getcd
                0x000000008081a280       0x1a drivers/mmc/built-in.o
 *fill*         0x000000008081a29a        0x2 
 .text.mmc_reset_controller_fsm
                0x000000008081a29c       0x6c drivers/mmc/built-in.o
 .text.omap_hsmmc_send_cmd
                0x000000008081a308      0x2f8 drivers/mmc/built-in.o
 .text.mmc_init_stream
                0x000000008081a600       0x80 drivers/mmc/built-in.o
                0x000000008081a600                mmc_init_stream
 .text.omap_hsmmc_init_setup
                0x000000008081a680      0x118 drivers/mmc/built-in.o
 .text.omap_mmc_init
                0x000000008081a798       0xe8 drivers/mmc/built-in.o
                0x000000008081a798                omap_mmc_init
 .text.mmc_berase
                0x000000008081a880      0x110 drivers/mmc/built-in.o
                0x000000008081a880                mmc_berase
 .text.mmc_bwrite
                0x000000008081a990       0xf8 drivers/mmc/built-in.o
                0x000000008081a990                mmc_bwrite
 .text.idr_get_next
                0x000000008081aa88       0x24 drivers/mtd/built-in.o
                0x000000008081aa88                idr_get_next
 .text.__mtd_next_device
                0x000000008081aaac       0x18 drivers/mtd/built-in.o
                0x000000008081aaac                __mtd_next_device
 .text.del_mtd_device
                0x000000008081aac4       0x4c drivers/mtd/built-in.o
                0x000000008081aac4                del_mtd_device
 .text.__get_mtd_device
                0x000000008081ab10       0x20 drivers/mtd/built-in.o
                0x000000008081ab10                __get_mtd_device
 .text.get_mtd_device
                0x000000008081ab30       0x54 drivers/mtd/built-in.o
                0x000000008081ab30                get_mtd_device
 .text.get_mtd_device_nm
                0x000000008081ab84       0x30 drivers/mtd/built-in.o
                0x000000008081ab84                get_mtd_device_nm
 .text.__put_mtd_device
                0x000000008081abb4       0x38 drivers/mtd/built-in.o
                0x000000008081abb4                __put_mtd_device
 .text.put_mtd_device
                0x000000008081abec        0x4 drivers/mtd/built-in.o
                0x000000008081abec                put_mtd_device
 .text.mtd_erase
                0x000000008081abf0       0x6a drivers/mtd/built-in.o
                0x000000008081abf0                mtd_erase
 .text.mtd_read
                0x000000008081ac5a       0x6e drivers/mtd/built-in.o
                0x000000008081ac5a                mtd_read
 .text.mtd_write
                0x000000008081acc8       0x64 drivers/mtd/built-in.o
                0x000000008081acc8                mtd_write
 .text.mtd_unlock
                0x000000008081ad2c       0x50 drivers/mtd/built-in.o
                0x000000008081ad2c                mtd_unlock
 .text.add_mtd_device
                0x000000008081ad7c      0x11c drivers/mtd/built-in.o
                0x000000008081ad7c                add_mtd_device
 .text.mtd_block_isbad
                0x000000008081ae98       0x2c drivers/mtd/built-in.o
                0x000000008081ae98                mtd_block_isbad
 .text.mtd_block_markbad
                0x000000008081aec4       0x42 drivers/mtd/built-in.o
                0x000000008081aec4                mtd_block_markbad
 .text.part_get_unmapped_area
                0x000000008081af06       0x16 drivers/mtd/built-in.o
 .text.part_read_user_prot_reg
                0x000000008081af1c        0x8 drivers/mtd/built-in.o
 .text.part_get_user_prot_info
                0x000000008081af24        0xe drivers/mtd/built-in.o
 .text.part_read_fact_prot_reg
                0x000000008081af32        0x8 drivers/mtd/built-in.o
 .text.part_get_fact_prot_info
                0x000000008081af3a        0xe drivers/mtd/built-in.o
 .text.part_write
                0x000000008081af48       0x18 drivers/mtd/built-in.o
 .text.part_panic_write
                0x000000008081af60       0x18 drivers/mtd/built-in.o
 .text.part_write_oob
                0x000000008081af78       0x50 drivers/mtd/built-in.o
 .text.part_write_user_prot_reg
                0x000000008081afc8        0xa drivers/mtd/built-in.o
 .text.part_lock_user_prot_reg
                0x000000008081afd2        0xa drivers/mtd/built-in.o
 .text.part_lock
                0x000000008081afdc       0x1a drivers/mtd/built-in.o
 .text.part_unlock
                0x000000008081aff6       0x1a drivers/mtd/built-in.o
 .text.part_is_locked
                0x000000008081b010       0x1a drivers/mtd/built-in.o
 .text.part_sync
                0x000000008081b02a        0xa drivers/mtd/built-in.o
 .text.part_block_isreserved
                0x000000008081b034       0x16 drivers/mtd/built-in.o
 .text.part_block_isbad
                0x000000008081b04a       0x16 drivers/mtd/built-in.o
 .text.part_block_markbad
                0x000000008081b060       0x24 drivers/mtd/built-in.o
 .text.part_read
                0x000000008081b084       0x60 drivers/mtd/built-in.o
 .text.part_read_oob
                0x000000008081b0e4      0x11a drivers/mtd/built-in.o
 .text.part_erase
                0x000000008081b1fe       0x4c drivers/mtd/built-in.o
 .text.kstrdup  0x000000008081b24a       0x2a drivers/mtd/built-in.o
                0x000000008081b24a                kstrdup
 .text.mtd_erase_callback
                0x000000008081b274       0x48 drivers/mtd/built-in.o
                0x000000008081b274                mtd_erase_callback
 .text.del_mtd_partitions
                0x000000008081b2bc       0x6c drivers/mtd/built-in.o
                0x000000008081b2bc                del_mtd_partitions
 .text.add_mtd_partitions
                0x000000008081b328      0x4e4 drivers/mtd/built-in.o
                0x000000008081b328                add_mtd_partitions
 .text.mtd_is_partition
                0x000000008081b80c       0x24 drivers/mtd/built-in.o
                0x000000008081b80c                mtd_is_partition
 .text.mtd_get_device_size
                0x000000008081b830       0x1a drivers/mtd/built-in.o
                0x000000008081b830                mtd_get_device_size
 *fill*         0x000000008081b84a        0x2 
 .text.add_to_list
                0x000000008081b84c       0x84 drivers/mtd/ubi/built-in.o
 .text.destroy_ai
                0x000000008081b8d0      0x142 drivers/mtd/ubi/built-in.o
 *fill*         0x000000008081ba12        0x2 
 .text.validate_vid_hdr.isra.2
                0x000000008081ba14      0x254 drivers/mtd/ubi/built-in.o
 .text.ubi_compare_lebs
                0x000000008081bc68      0x210 drivers/mtd/ubi/built-in.o
                0x000000008081bc68                ubi_compare_lebs
 .text.ubi_add_to_av
                0x000000008081be78      0x3c6 drivers/mtd/ubi/built-in.o
                0x000000008081be78                ubi_add_to_av
 .text.ubi_find_av
                0x000000008081c23e       0x1c drivers/mtd/ubi/built-in.o
                0x000000008081c23e                ubi_find_av
 .text.ubi_remove_av
                0x000000008081c25a       0x48 drivers/mtd/ubi/built-in.o
                0x000000008081c25a                ubi_remove_av
 .text.ubi_early_get_peb
                0x000000008081c2a2      0x118 drivers/mtd/ubi/built-in.o
                0x000000008081c2a2                ubi_early_get_peb
 *fill*         0x000000008081c3ba        0x2 
 .text.ubi_attach
                0x000000008081c3bc      0xafc drivers/mtd/ubi/built-in.o
                0x000000008081c3bc                ubi_attach
 .text.kill_volumes
                0x000000008081ceb8       0x24 drivers/mtd/ubi/built-in.o
 .text.ubi_volume_notify
                0x000000008081cedc       0x1e drivers/mtd/ubi/built-in.o
                0x000000008081cedc                ubi_volume_notify
 .text.ubi_notify_all
                0x000000008081cefa       0x36 drivers/mtd/ubi/built-in.o
                0x000000008081cefa                ubi_notify_all
 .text.ubi_get_device
                0x000000008081cf30       0x18 drivers/mtd/ubi/built-in.o
                0x000000008081cf30                ubi_get_device
 .text.ubi_put_device
                0x000000008081cf48        0xc drivers/mtd/ubi/built-in.o
                0x000000008081cf48                ubi_put_device
 .text.ubi_free_internal_volumes
                0x000000008081cf54       0x32 drivers/mtd/ubi/built-in.o
                0x000000008081cf54                ubi_free_internal_volumes
 *fill*         0x000000008081cf86        0x2 
 .text.ubi_attach_mtd_dev
                0x000000008081cf88      0x51c drivers/mtd/ubi/built-in.o
                0x000000008081cf88                ubi_attach_mtd_dev
 .text.ubi_detach_mtd_dev
                0x000000008081d4a4       0xa4 drivers/mtd/ubi/built-in.o
                0x000000008081d4a4                ubi_detach_mtd_dev
 .text.ubi_init
                0x000000008081d548       0xd0 drivers/mtd/ubi/built-in.o
                0x000000008081d548                ubi_init
 .text.ubi_exit
                0x000000008081d618       0x3c drivers/mtd/ubi/built-in.o
                0x000000008081d618                ubi_exit
 .text.kstrtoint
                0x000000008081d654       0x18 drivers/mtd/ubi/built-in.o
                0x000000008081d654                kstrtoint
 .text.ubi_mtd_param_parse
                0x000000008081d66c      0x11c drivers/mtd/ubi/built-in.o
                0x000000008081d66c                ubi_mtd_param_parse
 .text.ubi_update_layout_vol
                0x000000008081d788       0x30 drivers/mtd/ubi/built-in.o
 .text.vtbl_check
                0x000000008081d7b8      0x21c drivers/mtd/ubi/built-in.o
 .text.create_vtbl
                0x000000008081d9d4      0x166 drivers/mtd/ubi/built-in.o
 *fill*         0x000000008081db3a        0x2 
 .text.ubi_change_vtbl_record
                0x000000008081db3c       0x90 drivers/mtd/ubi/built-in.o
                0x000000008081db3c                ubi_change_vtbl_record
 .text.ubi_read_volume_table
                0x000000008081dbcc      0x520 drivers/mtd/ubi/built-in.o
                0x000000008081dbcc                ubi_read_volume_table
 .text.vol_release
                0x000000008081e0ec       0x16 drivers/mtd/ubi/built-in.o
 *fill*         0x000000008081e102        0x2 
 .text.self_check_volumes
                0x000000008081e104      0x294 drivers/mtd/ubi/built-in.o
 .text.ubi_create_volume
                0x000000008081e398      0x348 drivers/mtd/ubi/built-in.o
                0x000000008081e398                ubi_create_volume
 .text.ubi_resize_volume
                0x000000008081e6e0      0x19c drivers/mtd/ubi/built-in.o
                0x000000008081e6e0                ubi_resize_volume
 .text.ubi_add_volume
                0x000000008081e87c       0x20 drivers/mtd/ubi/built-in.o
                0x000000008081e87c                ubi_add_volume
 .text.ubi_free_volume
                0x000000008081e89c        0xe drivers/mtd/ubi/built-in.o
                0x000000008081e89c                ubi_free_volume
 .text.clear_update_marker
                0x000000008081e8aa       0x9a drivers/mtd/ubi/built-in.o
 .text.write_leb
                0x000000008081e944       0x72 drivers/mtd/ubi/built-in.o
 .text.ubi_start_update
                0x000000008081e9b6      0x116 drivers/mtd/ubi/built-in.o
                0x000000008081e9b6                ubi_start_update
 .text.ubi_more_update_data
                0x000000008081eacc      0x1b4 drivers/mtd/ubi/built-in.o
                0x000000008081eacc                ubi_more_update_data
 .text.ubi_do_get_device_info
                0x000000008081ec80       0x24 drivers/mtd/ubi/built-in.o
                0x000000008081ec80                ubi_do_get_device_info
 .text.ubi_get_device_info
                0x000000008081eca4       0x28 drivers/mtd/ubi/built-in.o
                0x000000008081eca4                ubi_get_device_info
 .text.ubi_do_get_volume_info
                0x000000008081eccc       0x46 drivers/mtd/ubi/built-in.o
                0x000000008081eccc                ubi_do_get_volume_info
 .text.ubi_get_volume_info
                0x000000008081ed12        0xc drivers/mtd/ubi/built-in.o
                0x000000008081ed12                ubi_get_volume_info
 .text.ubi_close_volume
                0x000000008081ed1e       0x44 drivers/mtd/ubi/built-in.o
                0x000000008081ed1e                ubi_close_volume
 .text.ubi_open_volume
                0x000000008081ed62      0x116 drivers/mtd/ubi/built-in.o
                0x000000008081ed62                ubi_open_volume
 .text.ubi_open_volume_nm
                0x000000008081ee78       0x86 drivers/mtd/ubi/built-in.o
                0x000000008081ee78                ubi_open_volume_nm
 .text.ubi_leb_read
                0x000000008081eefe       0x92 drivers/mtd/ubi/built-in.o
                0x000000008081eefe                ubi_leb_read
 .text.ubi_leb_unmap
                0x000000008081ef90       0x44 drivers/mtd/ubi/built-in.o
                0x000000008081ef90                ubi_leb_unmap
 .text.ubi_is_mapped
                0x000000008081efd4       0x2e drivers/mtd/ubi/built-in.o
                0x000000008081efd4                ubi_is_mapped
 .text.ltree_lookup.isra.1
                0x000000008081f002       0x1c drivers/mtd/ubi/built-in.o
 .text.leb_write_trylock
                0x000000008081f01e       0x8a drivers/mtd/ubi/built-in.o
 .text.leb_write_unlock
                0x000000008081f0a8       0x2a drivers/mtd/ubi/built-in.o
 *fill*         0x000000008081f0d2        0x2 
 .text.is_error_sane
                0x000000008081f0d4       0x28 drivers/mtd/ubi/built-in.o
 .text.ubi_eba_unmap_leb
                0x000000008081f0fc       0x58 drivers/mtd/ubi/built-in.o
                0x000000008081f0fc                ubi_eba_unmap_leb
 .text.ubi_eba_read_leb
                0x000000008081f154      0x178 drivers/mtd/ubi/built-in.o
                0x000000008081f154                ubi_eba_read_leb
 .text.ubi_eba_write_leb
                0x000000008081f2cc      0x468 drivers/mtd/ubi/built-in.o
                0x000000008081f2cc                ubi_eba_write_leb
 .text.ubi_eba_write_leb_st
                0x000000008081f734      0x2bc drivers/mtd/ubi/built-in.o
                0x000000008081f734                ubi_eba_write_leb_st
 .text.ubi_eba_atomic_leb_change
                0x000000008081f9f0      0x25c drivers/mtd/ubi/built-in.o
                0x000000008081f9f0                ubi_eba_atomic_leb_change
 .text.ubi_eba_copy_leb
                0x000000008081fc4c      0x2c8 drivers/mtd/ubi/built-in.o
                0x000000008081fc4c                ubi_eba_copy_leb
 .text.ubi_eba_init
                0x000000008081ff14      0x168 drivers/mtd/ubi/built-in.o
                0x000000008081ff14                ubi_eba_init
 .text.erase_callback
                0x000000008082007c        0x2 drivers/mtd/ubi/built-in.o
 .text.validate_ec_hdr
                0x000000008082007e       0xde drivers/mtd/ubi/built-in.o
 .text.self_check_ec_hdr.isra.0.part.1
                0x000000008082015c       0x50 drivers/mtd/ubi/built-in.o
 .text.self_check_vid_hdr.isra.3.part.4
                0x00000000808201ac       0x54 drivers/mtd/ubi/built-in.o
 .text.ubi_io_is_bad
                0x0000000080820200       0x1e drivers/mtd/ubi/built-in.o
                0x0000000080820200                ubi_io_is_bad
 .text.self_check_not_bad.part.5
                0x000000008082021e       0x12 drivers/mtd/ubi/built-in.o
 .text.ubi_io_read
                0x0000000080820230       0x98 drivers/mtd/ubi/built-in.o
                0x0000000080820230                ubi_io_read
 .text.self_check_peb_ec_hdr.part.7
                0x00000000808202c8       0xaa drivers/mtd/ubi/built-in.o
 .text.ubi_io_mark_bad
                0x0000000080820372       0x26 drivers/mtd/ubi/built-in.o
                0x0000000080820372                ubi_io_mark_bad
 .text.ubi_io_read_ec_hdr
                0x0000000080820398       0xf0 drivers/mtd/ubi/built-in.o
                0x0000000080820398                ubi_io_read_ec_hdr
 .text.ubi_io_read_vid_hdr
                0x0000000080820488       0xfc drivers/mtd/ubi/built-in.o
                0x0000000080820488                ubi_io_read_vid_hdr
 .text.ubi_self_check_all_ff
                0x0000000080820584       0x84 drivers/mtd/ubi/built-in.o
                0x0000000080820584                ubi_self_check_all_ff
 .text.ubi_io_write
                0x0000000080820608      0x258 drivers/mtd/ubi/built-in.o
                0x0000000080820608                ubi_io_write
 .text.ubi_io_write_ec_hdr
                0x0000000080820860       0xc6 drivers/mtd/ubi/built-in.o
                0x0000000080820860                ubi_io_write_ec_hdr
 .text.ubi_io_write_vid_hdr
                0x0000000080820926       0x94 drivers/mtd/ubi/built-in.o
                0x0000000080820926                ubi_io_write_vid_hdr
 *fill*         0x00000000808209ba        0x2 
 .text.do_sync_erase
                0x00000000808209bc       0xd0 drivers/mtd/ubi/built-in.o
 .text.ubi_io_sync_erase
                0x0000000080820a8c      0x1c0 drivers/mtd/ubi/built-in.o
                0x0000000080820a8c                ubi_io_sync_erase
 .text.in_wl_tree
                0x0000000080820c4c       0x2c drivers/mtd/ubi/built-in.o
 .text.shutdown_work
                0x0000000080820c78       0x34 drivers/mtd/ubi/built-in.o
 .text.prot_queue_del
                0x0000000080820cac       0x46 drivers/mtd/ubi/built-in.o
 .text.find_wl_entry
                0x0000000080820cf2       0x44 drivers/mtd/ubi/built-in.o
 .text.wl_tree_add
                0x0000000080820d36       0x36 drivers/mtd/ubi/built-in.o
 .text.wl_entry_destroy.isra.1
                0x0000000080820d6c        0xe drivers/mtd/ubi/built-in.o
 .text.tree_destroy
                0x0000000080820d7a       0x36 drivers/mtd/ubi/built-in.o
 .text.self_check_in_wl_tree
                0x0000000080820db0       0x22 drivers/mtd/ubi/built-in.o
 .text.get_peb_for_wl
                0x0000000080820dd2       0x34 drivers/mtd/ubi/built-in.o
 .text.do_work  0x0000000080820e06       0x32 drivers/mtd/ubi/built-in.o
                0x0000000080820e06                do_work
 .text.schedule_erase
                0x0000000080820e38       0x54 drivers/mtd/ubi/built-in.o
 .text.ensure_wear_leveling
                0x0000000080820e8c       0x94 drivers/mtd/ubi/built-in.o
 .text.erase_worker
                0x0000000080820f20      0x320 drivers/mtd/ubi/built-in.o
 .text.wear_leveling_worker
                0x0000000080821240      0x318 drivers/mtd/ubi/built-in.o
 .text.ubi_wl_put_peb
                0x0000000080821558       0xda drivers/mtd/ubi/built-in.o
                0x0000000080821558                ubi_wl_put_peb
 *fill*         0x0000000080821632        0x2 
 .text.ubi_wl_scrub_peb
                0x0000000080821634       0xa8 drivers/mtd/ubi/built-in.o
                0x0000000080821634                ubi_wl_scrub_peb
 .text.ubi_wl_flush
                0x00000000808216dc       0x60 drivers/mtd/ubi/built-in.o
                0x00000000808216dc                ubi_wl_flush
 .text.ubi_wl_init
                0x000000008082173c      0x218 drivers/mtd/ubi/built-in.o
                0x000000008082173c                ubi_wl_init
 .text.ubi_wl_close
                0x0000000080821954       0x72 drivers/mtd/ubi/built-in.o
                0x0000000080821954                ubi_wl_close
 .text.ubi_wl_get_peb
                0x00000000808219c6       0xc2 drivers/mtd/ubi/built-in.o
                0x00000000808219c6                ubi_wl_get_peb
 .text.crc32_le
                0x0000000080821a88       0x94 drivers/mtd/ubi/built-in.o
                0x0000000080821a88                crc32_le
 .text.ubi_calc_data_len
                0x0000000080821b1c       0x20 drivers/mtd/ubi/built-in.o
                0x0000000080821b1c                ubi_calc_data_len
 .text.ubi_check_volume
                0x0000000080821b3c       0x7c drivers/mtd/ubi/built-in.o
                0x0000000080821b3c                ubi_check_volume
 .text.ubi_update_reserved
                0x0000000080821bb8       0x40 drivers/mtd/ubi/built-in.o
                0x0000000080821bb8                ubi_update_reserved
 .text.ubi_calculate_reserved
                0x0000000080821bf8       0x14 drivers/mtd/ubi/built-in.o
                0x0000000080821bf8                ubi_calculate_reserved
 .text.ubi_check_pattern
                0x0000000080821c0c       0x1a drivers/mtd/ubi/built-in.o
                0x0000000080821c0c                ubi_check_pattern
 *fill*         0x0000000080821c26        0x2 
 .text.ubi_dump_flash
                0x0000000080821c28       0x64 drivers/mtd/ubi/built-in.o
                0x0000000080821c28                ubi_dump_flash
 .text.ubi_dump_ec_hdr
                0x0000000080821c8c        0x2 drivers/mtd/ubi/built-in.o
                0x0000000080821c8c                ubi_dump_ec_hdr
 .text.ubi_dump_vid_hdr
                0x0000000080821c8e        0x2 drivers/mtd/ubi/built-in.o
                0x0000000080821c8e                ubi_dump_vid_hdr
 .text.ubi_dump_vol_info
                0x0000000080821c90       0xfc drivers/mtd/ubi/built-in.o
                0x0000000080821c90                ubi_dump_vol_info
 .text.ubi_dump_vtbl_record
                0x0000000080821d8c       0x22 drivers/mtd/ubi/built-in.o
                0x0000000080821d8c                ubi_dump_vtbl_record
 .text.ubi_dump_av
                0x0000000080821dae        0x2 drivers/mtd/ubi/built-in.o
                0x0000000080821dae                ubi_dump_av
 .text.ubi_dump_aeb
                0x0000000080821db0        0x2 drivers/mtd/ubi/built-in.o
                0x0000000080821db0                ubi_dump_aeb
 .text.ubi_debugfs_init
                0x0000000080821db2        0x4 drivers/mtd/ubi/built-in.o
                0x0000000080821db2                ubi_debugfs_init
 .text.ubi_debugfs_exit
                0x0000000080821db6        0x2 drivers/mtd/ubi/built-in.o
                0x0000000080821db6                ubi_debugfs_exit
 .text.ubi_debugfs_init_dev
                0x0000000080821db8        0x4 drivers/mtd/ubi/built-in.o
                0x0000000080821db8                ubi_debugfs_init_dev
 .text.ubi_debugfs_exit_dev
                0x0000000080821dbc        0x2 drivers/mtd/ubi/built-in.o
                0x0000000080821dbc                ubi_debugfs_exit_dev
 .text.ubi_dbg_power_cut
                0x0000000080821dbe        0x4 drivers/mtd/ubi/built-in.o
                0x0000000080821dbe                ubi_dbg_power_cut
 .text.cpsw_halt
                0x0000000080821dc2       0x24 drivers/net/built-in.o
 .text.cpsw_ale_read.isra.0
                0x0000000080821de6       0x14 drivers/net/built-in.o
 .text.cpsw_ale_match_free
                0x0000000080821dfa       0x30 drivers/net/built-in.o
 .text.cpsw_ale_find_ageable
                0x0000000080821e2a       0x36 drivers/net/built-in.o
 .text.cpsw_ale_match_addr
                0x0000000080821e60       0x68 drivers/net/built-in.o
 .text.cpsw_ale_write.isra.1
                0x0000000080821ec8       0x16 drivers/net/built-in.o
 *fill*         0x0000000080821ede        0x2 
 .text.cpsw_mdio_read
                0x0000000080821ee0       0x7c drivers/net/built-in.o
 .text.cpsw_mdio_write
                0x0000000080821f5c       0x74 drivers/net/built-in.o
 .text.cpdma_submit
                0x0000000080821fd0       0x4e drivers/net/built-in.o
 .text.cpdma_process
                0x000000008082201e       0x4a drivers/net/built-in.o
 .text.cpsw_send
                0x0000000080822068       0x50 drivers/net/built-in.o
 .text.cpsw_recv
                0x00000000808220b8       0x4c drivers/net/built-in.o
 .text.cpsw_ale_add_mcast.constprop.9
                0x0000000080822104       0xc0 drivers/net/built-in.o
 .text.cpsw_init
                0x00000000808221c4      0x318 drivers/net/built-in.o
 .text._cpsw_register
                0x00000000808224dc       0xfc drivers/net/built-in.o
                0x00000000808224dc                _cpsw_register
 .text.cpsw_register
                0x00000000808225d8       0x94 drivers/net/built-in.o
                0x00000000808225d8                cpsw_register
 .text.genphy_shutdown
                0x000000008082266c        0x4 drivers/net/phy/built-in.o
                0x000000008082266c                genphy_shutdown
 .text.genphy_restart_aneg
                0x0000000080822670       0x36 drivers/net/phy/built-in.o
                0x0000000080822670                genphy_restart_aneg
 .text.genphy_config_aneg
                0x00000000808226a6      0x154 drivers/net/phy/built-in.o
                0x00000000808226a6                genphy_config_aneg
 .text.genphy_config
                0x00000000808227fa       0x90 drivers/net/phy/built-in.o
                0x00000000808227fa                genphy_config
 *fill*         0x000000008082288a        0x2 
 .text.genphy_update_link
                0x000000008082288c       0xdc drivers/net/phy/built-in.o
                0x000000008082288c                genphy_update_link
 .text.genphy_parse_link
                0x0000000080822968      0x10a drivers/net/phy/built-in.o
                0x0000000080822968                genphy_parse_link
 .text.genphy_startup
                0x0000000080822a72       0x12 drivers/net/phy/built-in.o
                0x0000000080822a72                genphy_startup
 .text.phy_init
                0x0000000080822a84        0xe drivers/net/phy/built-in.o
                0x0000000080822a84                phy_init
 *fill*         0x0000000080822a92        0x2 
 .text.phy_register
                0x0000000080822a94       0x18 drivers/net/phy/built-in.o
                0x0000000080822a94                phy_register
 .text.get_phy_id
                0x0000000080822aac       0x40 drivers/net/phy/built-in.o
                0x0000000080822aac                get_phy_id
 .text.get_phy_device_by_mask
                0x0000000080822aec      0x1b8 drivers/net/phy/built-in.o
 .text.phy_reset
                0x0000000080822ca4       0x74 drivers/net/phy/built-in.o
                0x0000000080822ca4                phy_reset
 .text.phy_find_by_mask
                0x0000000080822d18       0x24 drivers/net/phy/built-in.o
                0x0000000080822d18                phy_find_by_mask
 .text.phy_connect_dev
                0x0000000080822d3c       0x2c drivers/net/phy/built-in.o
                0x0000000080822d3c                phy_connect_dev
 .text.phy_connect
                0x0000000080822d68       0x34 drivers/net/phy/built-in.o
                0x0000000080822d68                phy_connect
 .text.phy_startup
                0x0000000080822d9c        0xc drivers/net/phy/built-in.o
                0x0000000080822d9c                phy_startup
 .text.board_phy_config
                0x0000000080822da8        0xc drivers/net/phy/built-in.o
                0x0000000080822da8                board_phy_config
 .text.phy_config
                0x0000000080822db4        0xa drivers/net/phy/built-in.o
                0x0000000080822db4                phy_config
 .text.phy_write.constprop.0
                0x0000000080822dbe       0x18 drivers/net/phy/built-in.o
 .text.ar8031_config
                0x0000000080822dd6       0x56 drivers/net/phy/built-in.o
 .text.ar8021_config
                0x0000000080822e2c       0x22 drivers/net/phy/built-in.o
 .text.ar8035_config
                0x0000000080822e4e       0x7c drivers/net/phy/built-in.o
 *fill*         0x0000000080822eca        0x2 
 .text.phy_atheros_init
                0x0000000080822ecc       0x24 drivers/net/phy/built-in.o
                0x0000000080822ecc                phy_atheros_init
 .text.smsc_startup
                0x0000000080822ef0       0x32 drivers/net/phy/built-in.o
 *fill*         0x0000000080822f22        0x2 
 .text.phy_smsc_init
                0x0000000080822f24       0x30 drivers/net/phy/built-in.o
                0x0000000080822f24                phy_smsc_init
 .text._serial_putc
                0x0000000080822f54       0x22 drivers/serial/built-in.o
 .text._serial_tstc
                0x0000000080822f76       0x10 drivers/serial/built-in.o
 .text.serial_stub_putc
                0x0000000080822f86        0x6 drivers/serial/built-in.o
 .text.serial_stub_tstc
                0x0000000080822f8c        0x6 drivers/serial/built-in.o
                0x0000000080822f8c                serial_stub_tstc
 .text.serial_pre_remove
                0x0000000080822f92        0x4 drivers/serial/built-in.o
 .text._serial_getc
                0x0000000080822f96       0x20 drivers/serial/built-in.o
 .text.serial_stub_getc
                0x0000000080822fb6        0x6 drivers/serial/built-in.o
                0x0000000080822fb6                serial_stub_getc
 .text.serial_post_probe
                0x0000000080822fbc       0x74 drivers/serial/built-in.o
 .text.serial_stub_puts
                0x0000000080823030       0x16 drivers/serial/built-in.o
                0x0000000080823030                serial_stub_puts
 *fill*         0x0000000080823046        0x2 
 .text.serial_init
                0x0000000080823048       0x50 drivers/serial/built-in.o
                0x0000000080823048                serial_init
 .text.serial_initialize
                0x0000000080823098        0x4 drivers/serial/built-in.o
                0x0000000080823098                serial_initialize
 .text.serial_putc
                0x000000008082309c       0x12 drivers/serial/built-in.o
                0x000000008082309c                serial_putc
 .text.serial_puts
                0x00000000808230ae       0x1e drivers/serial/built-in.o
                0x00000000808230ae                serial_puts
 .text.serial_getc
                0x00000000808230cc       0x10 drivers/serial/built-in.o
                0x00000000808230cc                serial_getc
 .text.serial_tstc
                0x00000000808230dc       0x10 drivers/serial/built-in.o
                0x00000000808230dc                serial_tstc
 .text.serial_setbrg
                0x00000000808230ec       0x1e drivers/serial/built-in.o
                0x00000000808230ec                serial_setbrg
 *fill*         0x000000008082310a        0x2 
 .text.on_baudrate
                0x000000008082310c       0x9c drivers/serial/built-in.o
 .text.serial_stdio_init
                0x00000000808231a8        0x2 drivers/serial/built-in.o
                0x00000000808231a8                serial_stdio_init
 .text.ns16550_writeb.isra.0
                0x00000000808231aa       0x10 drivers/serial/built-in.o
 .text.NS16550_setbrg
                0x00000000808231ba       0x34 drivers/serial/built-in.o
 .text.ns16550_serial_setbrg
                0x00000000808231ee       0x24 drivers/serial/built-in.o
 .text.ns16550_readb.isra.1
                0x0000000080823212       0x10 drivers/serial/built-in.o
 .text.ns16550_serial_pending
                0x0000000080823222       0x28 drivers/serial/built-in.o
 .text.ns16550_serial_putc
                0x000000008082324a       0x34 drivers/serial/built-in.o
 .text.ns16550_serial_getc
                0x000000008082327e       0x26 drivers/serial/built-in.o
 .text.NS16550_init
                0x00000000808232a4       0x54 drivers/serial/built-in.o
                0x00000000808232a4                NS16550_init
 .text.ns16550_serial_probe
                0x00000000808232f8       0x20 drivers/serial/built-in.o
                0x00000000808232f8                ns16550_serial_probe
 .text.usb_ep_autoconfig
                0x0000000080823318      0x120 drivers/usb/gadget/built-in.o
                0x0000000080823318                usb_ep_autoconfig
 .text.usb_ep_autoconfig_reset
                0x0000000080823438       0x24 drivers/usb/gadget/built-in.o
                0x0000000080823438                usb_ep_autoconfig_reset
 .text.usb_descriptor_fillbuf
                0x000000008082345c       0x3a drivers/usb/gadget/built-in.o
                0x000000008082345c                usb_descriptor_fillbuf
 .text.usb_gadget_config_buf
                0x0000000080823496       0x54 drivers/usb/gadget/built-in.o
                0x0000000080823496                usb_gadget_config_buf
 .text.usb_gadget_get_string
                0x00000000808234ea       0xe6 drivers/usb/gadget/built-in.o
                0x00000000808234ea                usb_gadget_get_string
 .text.rndis_response_complete
                0x00000000808235d0        0x2 drivers/usb/gadget/built-in.o
 *fill*         0x00000000808235d2        0x2 
 .text.tx_complete
                0x00000000808235d4       0x34 drivers/usb/gadget/built-in.o
 .text.eth_resume
                0x0000000080823608        0x2 drivers/usb/gadget/built-in.o
 *fill*         0x000000008082360a        0x2 
 .text.rx_complete
                0x000000008082360c       0x84 drivers/usb/gadget/built-in.o
 .text.usb_eth_send
                0x0000000080823690       0xf4 drivers/usb/gadget/built-in.o
 .text.rndis_command_complete
                0x0000000080823784       0x38 drivers/usb/gadget/built-in.o
 .text.eth_unbind
                0x00000000808237bc       0x5a drivers/usb/gadget/built-in.o
 *fill*         0x0000000080823816        0x2 
 .text.rndis_control_ack_complete
                0x0000000080823818       0x4c drivers/usb/gadget/built-in.o
 .text.rndis_control_ack
                0x0000000080823864       0x68 drivers/usb/gadget/built-in.o
 .text.nibble   0x00000000808238cc       0x28 drivers/usb/gadget/built-in.o
 .text.get_ether_addr
                0x00000000808238f4       0x68 drivers/usb/gadget/built-in.o
 .text.eth_bind
                0x000000008082395c      0x368 drivers/usb/gadget/built-in.o
 .text.eth_reset_config
                0x0000000080823cc4       0x6c drivers/usb/gadget/built-in.o
 .text.eth_disconnect
                0x0000000080823d30        0x6 drivers/usb/gadget/built-in.o
 *fill*         0x0000000080823d36        0x2 
 .text.set_ether_config.isra.5
                0x0000000080823d38      0x134 drivers/usb/gadget/built-in.o
 .text.is_eth_addr_valid.part.7
                0x0000000080823e6c       0x6c drivers/usb/gadget/built-in.o
 .text.rx_submit.constprop.8
                0x0000000080823ed8       0x74 drivers/usb/gadget/built-in.o
 .text.usb_eth_recv
                0x0000000080823f4c       0x54 drivers/usb/gadget/built-in.o
 .text.eth_setup
                0x0000000080823fa0      0x2f4 drivers/usb/gadget/built-in.o
 .text.eth_setup_complete
                0x0000000080824294        0x2 drivers/usb/gadget/built-in.o
 .text.eth_suspend
                0x0000000080824296        0x2 drivers/usb/gadget/built-in.o
 .text.usb_eth_init
                0x0000000080824298      0x1a8 drivers/usb/gadget/built-in.o
 .text._usb_eth_halt
                0x0000000080824440       0x74 drivers/usb/gadget/built-in.o
                0x0000000080824440                _usb_eth_halt
 .text.usb_eth_halt
                0x00000000808244b4        0x6 drivers/usb/gadget/built-in.o
                0x00000000808244b4                usb_eth_halt
 *fill*         0x00000000808244ba        0x2 
 .text.usb_eth_initialize
                0x00000000808244bc       0x54 drivers/usb/gadget/built-in.o
                0x00000000808244bc                usb_eth_initialize
 .text.rndis_add_response
                0x0000000080824510       0x3c drivers/usb/gadget/built-in.o
 .text.rndis_signal_connect
                0x000000008082454c       0x50 drivers/usb/gadget/built-in.o
                0x000000008082454c                rndis_signal_connect
 .text.rndis_signal_disconnect
                0x000000008082459c       0x14 drivers/usb/gadget/built-in.o
                0x000000008082459c                rndis_signal_disconnect
 .text.rndis_set_host_mac
                0x00000000808245b0       0x10 drivers/usb/gadget/built-in.o
                0x00000000808245b0                rndis_set_host_mac
 .text.rndis_get_state
                0x00000000808245c0       0x14 drivers/usb/gadget/built-in.o
                0x00000000808245c0                rndis_get_state
 .text.rndis_msg_parser
                0x00000000808245d4      0x448 drivers/usb/gadget/built-in.o
                0x00000000808245d4                rndis_msg_parser
 .text.rndis_register
                0x0000000080824a1c       0x1c drivers/usb/gadget/built-in.o
                0x0000000080824a1c                rndis_register
 .text.rndis_deregister
                0x0000000080824a38       0x18 drivers/usb/gadget/built-in.o
                0x0000000080824a38                rndis_deregister
 .text.rndis_set_param_dev
                0x0000000080824a50       0x20 drivers/usb/gadget/built-in.o
                0x0000000080824a50                rndis_set_param_dev
 .text.rndis_set_param_vendor
                0x0000000080824a70       0x18 drivers/usb/gadget/built-in.o
                0x0000000080824a70                rndis_set_param_vendor
 .text.rndis_set_param_medium
                0x0000000080824a88       0x14 drivers/usb/gadget/built-in.o
                0x0000000080824a88                rndis_set_param_medium
 .text.rndis_add_hdr
                0x0000000080824a9c       0x4e drivers/usb/gadget/built-in.o
                0x0000000080824a9c                rndis_add_hdr
 *fill*         0x0000000080824aea        0x2 
 .text.rndis_free_response
                0x0000000080824aec       0x40 drivers/usb/gadget/built-in.o
                0x0000000080824aec                rndis_free_response
 .text.rndis_get_next_response
                0x0000000080824b2c       0x3c drivers/usb/gadget/built-in.o
                0x0000000080824b2c                rndis_get_next_response
 .text.rndis_uninit
                0x0000000080824b68       0x30 drivers/usb/gadget/built-in.o
                0x0000000080824b68                rndis_uninit
 .text.rndis_rm_hdr
                0x0000000080824b98       0x5e drivers/usb/gadget/built-in.o
                0x0000000080824b98                rndis_rm_hdr
 *fill*         0x0000000080824bf6        0x2 
 .text.rndis_init
                0x0000000080824bf8       0x1c drivers/usb/gadget/built-in.o
                0x0000000080824bf8                rndis_init
 .text.rndis_exit
                0x0000000080824c14        0x2 drivers/usb/gadget/built-in.o
                0x0000000080824c14                rndis_exit
 .text.musb_gadget_enable
                0x0000000080824c16      0x194 drivers/usb/musb-new/built-in.o
 .text.musb_gadget_fifo_status
                0x0000000080824daa       0x26 drivers/usb/musb-new/built-in.o
 .text.musb_gadget_fifo_flush
                0x0000000080824dd0       0x52 drivers/usb/musb-new/built-in.o
 .text.musb_gadget_get_frame
                0x0000000080824e22        0xe drivers/usb/musb-new/built-in.o
 .text.musb_gadget_wakeup
                0x0000000080824e30        0x4 drivers/usb/musb-new/built-in.o
 .text.musb_gadget_set_self_powered
                0x0000000080824e34       0x16 drivers/usb/musb-new/built-in.o
 .text.musb_gadget_vbus_draw
                0x0000000080824e4a        0x4 drivers/usb/musb-new/built-in.o
 .text.txstate  0x0000000080824e4e       0x66 drivers/usb/musb-new/built-in.o
 .text.musb_alloc_request
                0x0000000080824eb4       0x22 drivers/usb/musb-new/built-in.o
                0x0000000080824eb4                musb_alloc_request
 .text.musb_free_request
                0x0000000080824ed6        0x6 drivers/usb/musb-new/built-in.o
                0x0000000080824ed6                musb_free_request
 .text.init_peripheral_ep
                0x0000000080824edc       0xb4 drivers/usb/musb-new/built-in.o
 .text.musb_gadget_pullup
                0x0000000080824f90       0x38 drivers/usb/musb-new/built-in.o
 .text.musb_g_giveback
                0x0000000080824fc8       0x32 drivers/usb/musb-new/built-in.o
                0x0000000080824fc8                musb_g_giveback
 .text.rxstate  0x0000000080824ffa       0x94 drivers/usb/musb-new/built-in.o
 .text.musb_gadget_dequeue
                0x000000008082508e       0x3a drivers/usb/musb-new/built-in.o
 .text.musb_gadget_disable
                0x00000000808250c8       0x6c drivers/usb/musb-new/built-in.o
 .text.musb_g_tx
                0x0000000080825134       0xe0 drivers/usb/musb-new/built-in.o
                0x0000000080825134                musb_g_tx
 .text.musb_g_rx
                0x0000000080825214       0x6c drivers/usb/musb-new/built-in.o
                0x0000000080825214                musb_g_rx
 .text.musb_ep_restart
                0x0000000080825280       0x1e drivers/usb/musb-new/built-in.o
                0x0000000080825280                musb_ep_restart
 .text.musb_gadget_set_halt
                0x000000008082529e       0xc0 drivers/usb/musb-new/built-in.o
 .text.musb_gadget_queue
                0x000000008082535e       0x74 drivers/usb/musb-new/built-in.o
 *fill*         0x00000000808253d2        0x2 
 .text.musb_gadget_setup
                0x00000000808253d4       0x90 drivers/usb/musb-new/built-in.o
                0x00000000808253d4                musb_gadget_setup
 .text.musb_gadget_start
                0x0000000080825464       0x2a drivers/usb/musb-new/built-in.o
                0x0000000080825464                musb_gadget_start
 .text.musb_g_ep0_disable
                0x000000008082548e        0x6 drivers/usb/musb-new/built-in.o
 .text.musb_g_ep0_dequeue
                0x0000000080825494        0x6 drivers/usb/musb-new/built-in.o
 .text.musb_g_ep0_halt
                0x000000008082549a       0x5e drivers/usb/musb-new/built-in.o
 .text.musb_g_ep0_enable
                0x00000000808254f8        0x6 drivers/usb/musb-new/built-in.o
 .text.ep0_txstate
                0x00000000808254fe       0x94 drivers/usb/musb-new/built-in.o
 .text.musb_g_ep0_queue
                0x0000000080825592       0xb2 drivers/usb/musb-new/built-in.o
 .text.musb_g_ep0_irq
                0x0000000080825644      0x5fc drivers/usb/musb-new/built-in.o
                0x0000000080825644                musb_g_ep0_irq
 .text.fifo_setup
                0x0000000080825c40      0x12a drivers/usb/musb-new/built-in.o
 .text.musb_write_fifo
                0x0000000080825d6a       0x72 drivers/usb/musb-new/built-in.o
                0x0000000080825d6a                musb_write_fifo
 .text.musb_read_fifo
                0x0000000080825ddc       0x72 drivers/usb/musb-new/built-in.o
                0x0000000080825ddc                musb_read_fifo
 *fill*         0x0000000080825e4e        0x2 
 .text.musb_load_testpacket
                0x0000000080825e50       0x24 drivers/usb/musb-new/built-in.o
                0x0000000080825e50                musb_load_testpacket
 .text.musb_start
                0x0000000080825e74       0x88 drivers/usb/musb-new/built-in.o
                0x0000000080825e74                musb_start
 .text.musb_stop
                0x0000000080825efc       0x32 drivers/usb/musb-new/built-in.o
                0x0000000080825efc                musb_stop
 .text.musb_interrupt
                0x0000000080825f2e       0xca drivers/usb/musb-new/built-in.o
                0x0000000080825f2e                musb_interrupt
 .text.musb_init_controller
                0x0000000080825ff8      0x440 drivers/usb/musb-new/built-in.o
                0x0000000080825ff8                musb_init_controller
 .text.musb_host_complete_urb
                0x0000000080826438       0x16 drivers/usb/musb-new/built-in.o
 *fill*         0x000000008082644e        0x2 
 .text.construct_urb
                0x0000000080826450       0x88 drivers/usb/musb-new/built-in.o
 .text._musb_reset_root_port.isra.1
                0x00000000808264d8       0x58 drivers/usb/musb-new/built-in.o
 .text.submit_urb.constprop.8
                0x0000000080826530       0x88 drivers/usb/musb-new/built-in.o
 .text.musb_lowlevel_init
                0x00000000808265b8       0x74 drivers/usb/musb-new/built-in.o
                0x00000000808265b8                musb_lowlevel_init
 .text.usb_lowlevel_stop
                0x000000008082662c       0x24 drivers/usb/musb-new/built-in.o
                0x000000008082662c                usb_lowlevel_stop
 .text.submit_bulk_msg
                0x0000000080826650       0x2c drivers/usb/musb-new/built-in.o
                0x0000000080826650                submit_bulk_msg
 .text.submit_control_msg
                0x000000008082667c       0x3c drivers/usb/musb-new/built-in.o
                0x000000008082667c                submit_control_msg
 .text.submit_int_msg
                0x00000000808266b8       0x30 drivers/usb/musb-new/built-in.o
                0x00000000808266b8                submit_int_msg
 .text.usb_reset_root_port
                0x00000000808266e8        0xc drivers/usb/musb-new/built-in.o
                0x00000000808266e8                usb_reset_root_port
 .text.usb_lowlevel_init
                0x00000000808266f4        0xc drivers/usb/musb-new/built-in.o
                0x00000000808266f4                usb_lowlevel_init
 .text.usb_gadget_handle_interrupts
                0x0000000080826700       0x24 drivers/usb/musb-new/built-in.o
                0x0000000080826700                usb_gadget_handle_interrupts
 .text.usb_gadget_register_driver
                0x0000000080826724       0x78 drivers/usb/musb-new/built-in.o
                0x0000000080826724                usb_gadget_register_driver
 .text.usb_gadget_unregister_driver
                0x000000008082679c       0x28 drivers/usb/musb-new/built-in.o
                0x000000008082679c                usb_gadget_unregister_driver
 .text.musb_register
                0x00000000808267c4       0x2c drivers/usb/musb-new/built-in.o
                0x00000000808267c4                musb_register
 .text.musb_h_ep0_flush_fifo
                0x00000000808267f0       0x3c drivers/usb/musb-new/built-in.o
 .text.musb_h_tx_flush_fifo
                0x000000008082682c       0x3c drivers/usb/musb-new/built-in.o
 .text.musb_start_urb
                0x0000000080826868      0x344 drivers/usb/musb-new/built-in.o
 .text.musb_advance_schedule
                0x0000000080826bac      0x154 drivers/usb/musb-new/built-in.o
 .text.musb_h_ep0_irq
                0x0000000080826d00      0x1c0 drivers/usb/musb-new/built-in.o
                0x0000000080826d00                musb_h_ep0_irq
 .text.musb_host_tx
                0x0000000080826ec0      0x128 drivers/usb/musb-new/built-in.o
                0x0000000080826ec0                musb_host_tx
 .text.musb_host_rx
                0x0000000080826fe8      0x274 drivers/usb/musb-new/built-in.o
                0x0000000080826fe8                musb_host_rx
 .text.musb_urb_enqueue
                0x000000008082725c      0x30c drivers/usb/musb-new/built-in.o
                0x000000008082725c                musb_urb_enqueue
 .text.musb_urb_dequeue
                0x0000000080827568       0xd4 drivers/usb/musb-new/built-in.o
                0x0000000080827568                musb_urb_dequeue
 .text.dsps_musb_enable
                0x000000008082763c       0x1c drivers/usb/musb-new/built-in.o
 .text.dsps_musb_disable
                0x0000000080827658        0x2 drivers/usb/musb-new/built-in.o
 *fill*         0x000000008082765a        0x2 
 .text.dsps_musb_init
                0x000000008082765c       0x50 drivers/usb/musb-new/built-in.o
 .text.dsps_musb_exit
                0x00000000808276ac       0x14 drivers/usb/musb-new/built-in.o
 .text.dsps_interrupt
                0x00000000808276c0       0x46 drivers/usb/musb-new/built-in.o
 *fill*         0x0000000080827706        0x2 
 .text.fs_probe_unsupported
                0x0000000080827708       0x14 fs/built-in.o
 .text.fs_exists_unsupported
                0x000000008082771c        0x4 fs/built-in.o
 .text.fs_size_unsupported
                0x0000000080827720        0x6 fs/built-in.o
 .text.fs_write_unsupported
                0x0000000080827726        0x6 fs/built-in.o
 .text.fs_close_unsupported
                0x000000008082772c        0x2 fs/built-in.o
 .text.fs_uuid_unsupported
                0x000000008082772e        0x6 fs/built-in.o
 .text.fs_get_info
                0x0000000080827734       0x30 fs/built-in.o
 .text.fs_close
                0x0000000080827764       0x18 fs/built-in.o
 .text.fs_read_unsupported
                0x000000008082777c        0x6 fs/built-in.o
 .text.fs_ls_unsupported
                0x0000000080827782        0x6 fs/built-in.o
 .text.fs_set_blk_dev
                0x0000000080827788       0x64 fs/built-in.o
                0x0000000080827788                fs_set_blk_dev
 .text.fs_ls    0x00000000808277ec       0x24 fs/built-in.o
                0x00000000808277ec                fs_ls
 .text.fs_exists
                0x0000000080827810       0x20 fs/built-in.o
                0x0000000080827810                fs_exists
 .text.fs_size  0x0000000080827830       0x24 fs/built-in.o
                0x0000000080827830                fs_size
 .text.fs_read  0x0000000080827854       0x60 fs/built-in.o
                0x0000000080827854                fs_read
 .text.fs_write
                0x00000000808278b4       0x60 fs/built-in.o
                0x00000000808278b4                fs_write
 .text.do_size  0x0000000080827914       0x40 fs/built-in.o
                0x0000000080827914                do_size
 .text.do_load  0x0000000080827954      0x17c fs/built-in.o
                0x0000000080827954                do_load
 .text.do_ls    0x0000000080827ad0       0x40 fs/built-in.o
                0x0000000080827ad0                do_ls
 .text.file_exists
                0x0000000080827b10       0x1a fs/built-in.o
                0x0000000080827b10                file_exists
 *fill*         0x0000000080827b2a        0x2 
 .text.do_save  0x0000000080827b2c       0xf8 fs/built-in.o
                0x0000000080827b2c                do_save
 .text.do_fs_type
                0x0000000080827c24       0x4c fs/built-in.o
                0x0000000080827c24                do_fs_type
 .text.get_fs   0x0000000080827c70        0x8 fs/built-in.o
                0x0000000080827c70                get_fs
 .text.ext4fs_free_node
                0x0000000080827c78       0x18 fs/built-in.o
                0x0000000080827c78                ext4fs_free_node
 .text.ext4fs_read_file
                0x0000000080827c90      0x244 fs/built-in.o
                0x0000000080827c90                ext4fs_read_file
 .text.ext4fs_ls
                0x0000000080827ed4       0x48 fs/built-in.o
                0x0000000080827ed4                ext4fs_ls
 .text.ext4fs_exists
                0x0000000080827f1c       0x14 fs/built-in.o
                0x0000000080827f1c                ext4fs_exists
 .text.ext4fs_size
                0x0000000080827f30        0x4 fs/built-in.o
                0x0000000080827f30                ext4fs_size
 .text.ext4fs_read
                0x0000000080827f34       0x30 fs/built-in.o
                0x0000000080827f34                ext4fs_read
 .text.ext4fs_probe
                0x0000000080827f64       0x1e fs/built-in.o
                0x0000000080827f64                ext4fs_probe
 *fill*         0x0000000080827f82        0x2 
 .text.ext4_read_file
                0x0000000080827f84       0x54 fs/built-in.o
                0x0000000080827f84                ext4_read_file
 .text.ext4fs_uuid
                0x0000000080827fd8       0x20 fs/built-in.o
                0x0000000080827fd8                ext4fs_uuid
 .text.ext4fs_div_roundup
                0x0000000080827ff8       0x14 fs/built-in.o
                0x0000000080827ff8                ext4fs_div_roundup
 .text.put_ext4
                0x000000008082800c      0x11c fs/built-in.o
                0x000000008082800c                put_ext4
 .text.ext4fs_set_block_bmap
                0x0000000080828128       0x70 fs/built-in.o
                0x0000000080828128                ext4fs_set_block_bmap
 .text.ext4fs_reset_block_bmap
                0x0000000080828198       0x68 fs/built-in.o
                0x0000000080828198                ext4fs_reset_block_bmap
 .text.ext4fs_set_inode_bmap
                0x0000000080828200       0x50 fs/built-in.o
                0x0000000080828200                ext4fs_set_inode_bmap
 .text.ext4fs_reset_inode_bmap
                0x0000000080828250       0x4c fs/built-in.o
                0x0000000080828250                ext4fs_reset_inode_bmap
 .text.ext4fs_checksum_update
                0x000000008082829c       0x46 fs/built-in.o
                0x000000008082829c                ext4fs_checksum_update
 *fill*         0x00000000808282e2        0x2 
 .text.ext4fs_get_new_blk_no
                0x00000000808282e4      0x250 fs/built-in.o
                0x00000000808282e4                ext4fs_get_new_blk_no
 .text.ext4fs_get_new_inode_no
                0x0000000080828534      0x234 fs/built-in.o
                0x0000000080828534                ext4fs_get_new_inode_no
 .text.ext4fs_allocate_blocks
                0x0000000080828768      0x408 fs/built-in.o
                0x0000000080828768                ext4fs_allocate_blocks
 .text.ext4fs_read_inode
                0x0000000080828b70       0xbe fs/built-in.o
                0x0000000080828b70                ext4fs_read_inode
 *fill*         0x0000000080828c2e        0x2 
 .text.ext4fs_iget
                0x0000000080828c30       0x1c fs/built-in.o
                0x0000000080828c30                ext4fs_iget
 .text.read_allocated_block
                0x0000000080828c4c      0x648 fs/built-in.o
                0x0000000080828c4c                read_allocated_block
 .text.ext4fs_update_parent_dentry
                0x0000000080829294      0x26c fs/built-in.o
                0x0000000080829294                ext4fs_update_parent_dentry
 .text.search_dir
                0x0000000080829500       0xb6 fs/built-in.o
 *fill*         0x00000000808295b6        0x2 
 .text.ext4fs_get_parent_inode_num
                0x00000000808295b8      0x2c8 fs/built-in.o
                0x00000000808295b8                ext4fs_get_parent_inode_num
 .text.ext4fs_filename_check
                0x0000000080829880       0xe8 fs/built-in.o
                0x0000000080829880                ext4fs_filename_check
 .text.ext4fs_reinit_global
                0x0000000080829968       0x78 fs/built-in.o
                0x0000000080829968                ext4fs_reinit_global
 .text.ext4fs_close
                0x00000000808299e0       0x34 fs/built-in.o
                0x00000000808299e0                ext4fs_close
 .text.ext4fs_iterate_dir
                0x0000000080829a14      0x1ec fs/built-in.o
                0x0000000080829a14                ext4fs_iterate_dir
 .text.ext4fs_find_file1
                0x0000000080829c00      0x1b4 fs/built-in.o
 .text.ext4fs_find_file
                0x0000000080829db4       0x40 fs/built-in.o
                0x0000000080829db4                ext4fs_find_file
 .text.ext4fs_open
                0x0000000080829df4       0x60 fs/built-in.o
                0x0000000080829df4                ext4fs_open
 .text.ext4fs_mount
                0x0000000080829e54       0x84 fs/built-in.o
                0x0000000080829e54                ext4fs_mount
 .text.ext4fs_set_blk_dev
                0x0000000080829ed8       0x4c fs/built-in.o
                0x0000000080829ed8                ext4fs_set_blk_dev
 .text.ext4fs_devread
                0x0000000080829f24      0x194 fs/built-in.o
                0x0000000080829f24                ext4fs_devread
 .text.ext4_read_superblock
                0x000000008082a0b8       0x28 fs/built-in.o
                0x000000008082a0b8                ext4_read_superblock
 .text.ext4fs_update
                0x000000008082a0e0       0xa8 fs/built-in.o
 .text.ext4fs_get_bgdtable
                0x000000008082a188       0x80 fs/built-in.o
                0x000000008082a188                ext4fs_get_bgdtable
 .text.ext4fs_deinit
                0x000000008082a208      0x108 fs/built-in.o
                0x000000008082a208                ext4fs_deinit
 .text.ext4fs_init
                0x000000008082a310      0x1bc fs/built-in.o
                0x000000008082a310                ext4fs_init
 .text.ext4fs_write
                0x000000008082a4cc      0xbf8 fs/built-in.o
                0x000000008082a4cc                ext4fs_write
 .text.ext4_write_file
                0x000000008082b0c4       0x48 fs/built-in.o
                0x000000008082b0c4                ext4_write_file
 .text.ext4fs_dump_metadata
                0x000000008082b10c       0x3c fs/built-in.o
                0x000000008082b10c                ext4fs_dump_metadata
 .text.ext4fs_free_journal
                0x000000008082b148       0x84 fs/built-in.o
                0x000000008082b148                ext4fs_free_journal
 .text.ext4fs_log_gdt
                0x000000008082b1cc       0x84 fs/built-in.o
                0x000000008082b1cc                ext4fs_log_gdt
 .text.ext4fs_log_journal
                0x000000008082b250       0x9c fs/built-in.o
                0x000000008082b250                ext4fs_log_journal
 .text.ext4fs_put_metadata
                0x000000008082b2ec       0x84 fs/built-in.o
                0x000000008082b2ec                ext4fs_put_metadata
 .text.ext4fs_push_revoke_blk
                0x000000008082b370       0x94 fs/built-in.o
                0x000000008082b370                ext4fs_push_revoke_blk
 .text.ext4fs_free_revoke_blks
                0x000000008082b404       0x3c fs/built-in.o
                0x000000008082b404                ext4fs_free_revoke_blks
 .text.check_blknr_for_revoke
                0x000000008082b440       0x3c fs/built-in.o
                0x000000008082b440                check_blknr_for_revoke
 .text.recover_transaction
                0x000000008082b47c       0xec fs/built-in.o
                0x000000008082b47c                recover_transaction
 .text.print_jrnl_status
                0x000000008082b568       0x14 fs/built-in.o
                0x000000008082b568                print_jrnl_status
 .text.ext4fs_check_journal_state
                0x000000008082b57c      0x200 fs/built-in.o
                0x000000008082b57c                ext4fs_check_journal_state
 .text.ext4fs_init_journal
                0x000000008082b77c      0x198 fs/built-in.o
                0x000000008082b77c                ext4fs_init_journal
 .text.ext4fs_update_journal
                0x000000008082b914      0x218 fs/built-in.o
                0x000000008082b914                ext4fs_update_journal
 .text.ext2fs_crc16
                0x000000008082bb2c       0x24 fs/built-in.o
                0x000000008082bb2c                ext2fs_crc16
 .text.downcase
                0x000000008082bb50       0x1c fs/built-in.o
 .text.disk_read
                0x000000008082bb6c       0x30 fs/built-in.o
 .text.get_fatent
                0x000000008082bb9c       0xcc fs/built-in.o
 .text.mkcksum  0x000000008082bc68       0x36 fs/built-in.o
 *fill*         0x000000008082bc9e        0x2 
 .text.disk_write
                0x000000008082bca0       0x4c fs/built-in.o
 .text.flush_fat_buffer
                0x000000008082bcec       0x4c fs/built-in.o
 .text.set_fatent_value
                0x000000008082bd38       0xa2 fs/built-in.o
 *fill*         0x000000008082bdda        0x2 
 .text.get_fatent_value
                0x000000008082bddc      0x128 fs/built-in.o
 .text.find_empty_cluster
                0x000000008082bf04       0x18 fs/built-in.o
 .text.get_cluster
                0x000000008082bf1c       0xf0 fs/built-in.o
 .text.get_name
                0x000000008082c00c       0x70 fs/built-in.o
 .text.set_cluster
                0x000000008082c07c       0xf4 fs/built-in.o
 .text.read_bootsectandvi
                0x000000008082c170       0xb4 fs/built-in.o
 .text.set_name
                0x000000008082c224       0xd0 fs/built-in.o
 .text.check_overflow
                0x000000008082c2f4       0x68 fs/built-in.o
 .text.slot2str
                0x000000008082c35c       0x5c fs/built-in.o
 .text.get_vfatname
                0x000000008082c3b8      0x10c fs/built-in.o
 .text.flush_dir_table.constprop.8
                0x000000008082c4c4       0x84 fs/built-in.o
 .text.do_fat_write
                0x000000008082c548      0x81c fs/built-in.o
 .text.fat_set_blk_dev
                0x000000008082cd64       0x88 fs/built-in.o
                0x000000008082cd64                fat_set_blk_dev
 .text.do_fat_read_at
                0x000000008082cdec      0x8f0 fs/built-in.o
                0x000000008082cdec                do_fat_read_at
 .text.do_fat_read
                0x000000008082d6dc       0x22 fs/built-in.o
                0x000000008082d6dc                do_fat_read
 *fill*         0x000000008082d6fe        0x2 
 .text.file_fat_detectfs
                0x000000008082d700       0xd4 fs/built-in.o
                0x000000008082d700                file_fat_detectfs
 .text.file_fat_ls
                0x000000008082d7d4       0x1a fs/built-in.o
                0x000000008082d7d4                file_fat_ls
 .text.fat_exists
                0x000000008082d7ee       0x2a fs/built-in.o
                0x000000008082d7ee                fat_exists
 .text.fat_size
                0x000000008082d818       0x22 fs/built-in.o
                0x000000008082d818                fat_size
 *fill*         0x000000008082d83a        0x2 
 .text.file_fat_read_at
                0x000000008082d83c       0x3c fs/built-in.o
                0x000000008082d83c                file_fat_read_at
 .text.fat_read_file
                0x000000008082d878       0x30 fs/built-in.o
                0x000000008082d878                fat_read_file
 .text.fat_close
                0x000000008082d8a8        0x2 fs/built-in.o
                0x000000008082d8a8                fat_close
 *fill*         0x000000008082d8aa        0x2 
 .text.file_fat_write
                0x000000008082d8ac       0x48 fs/built-in.o
                0x000000008082d8ac                file_fat_write
 .text.gzip_decompress
                0x000000008082d8f4       0x18 fs/built-in.o
 .text.compr_init
                0x000000008082d90c       0x6c fs/built-in.o
 .text.ubifs_findfile
                0x000000008082d978      0x22c fs/built-in.o
 .text.kmemdup  0x000000008082dba4       0x1e fs/built-in.o
                0x000000008082dba4                kmemdup
 *fill*         0x000000008082dbc2        0x2 
 .text.ubifs_decompress
                0x000000008082dbc4       0x54 fs/built-in.o
                0x000000008082dbc4                ubifs_decompress
 .text.read_block
                0x000000008082dc18       0xce fs/built-in.o
 *fill*         0x000000008082dce6        0x2 
 .text.ubifs_compressors_init
                0x000000008082dce8       0x2c fs/built-in.o
                0x000000008082dce8                ubifs_compressors_init
 .text.ubifs_set_blk_dev
                0x000000008082dd14       0x18 fs/built-in.o
                0x000000008082dd14                ubifs_set_blk_dev
 .text.ubifs_ls
                0x000000008082dd2c      0x388 fs/built-in.o
                0x000000008082dd2c                ubifs_ls
 .text.ubifs_exists
                0x000000008082e0b4       0x3c fs/built-in.o
                0x000000008082e0b4                ubifs_exists
 .text.ubifs_size
                0x000000008082e0f0       0x74 fs/built-in.o
                0x000000008082e0f0                ubifs_size
 .text.ubifs_read
                0x000000008082e164      0x290 fs/built-in.o
                0x000000008082e164                ubifs_read
 .text.ubifs_close
                0x000000008082e3f4        0x2 fs/built-in.o
                0x000000008082e3f4                ubifs_close
 *fill*         0x000000008082e3f6        0x2 
 .text.ubifs_load
                0x000000008082e3f8       0x50 fs/built-in.o
                0x000000008082e3f8                ubifs_load
 .text.uboot_ubifs_umount
                0x000000008082e448       0x30 fs/built-in.o
                0x000000008082e448                uboot_ubifs_umount
 .text.ubifs_ro_mode
                0x000000008082e478       0x2a fs/built-in.o
                0x000000008082e478                ubifs_ro_mode
 .text.ubifs_leb_read
                0x000000008082e4a2       0x10 fs/built-in.o
                0x000000008082e4a2                ubifs_leb_read
 .text.ubifs_leb_unmap
                0x000000008082e4b2       0x2c fs/built-in.o
                0x000000008082e4b2                ubifs_leb_unmap
 .text.ubifs_is_mapped
                0x000000008082e4de        0x8 fs/built-in.o
                0x000000008082e4de                ubifs_is_mapped
 *fill*         0x000000008082e4e6        0x2 
 .text.ubifs_check_node
                0x000000008082e4e8       0xc4 fs/built-in.o
                0x000000008082e4e8                ubifs_check_node
 .text.ubifs_pad
                0x000000008082e5ac       0x8c fs/built-in.o
                0x000000008082e5ac                ubifs_pad
 .text.ubifs_wbuf_seek_nolock
                0x000000008082e638       0x38 fs/built-in.o
                0x000000008082e638                ubifs_wbuf_seek_nolock
 .text.ubifs_read_node
                0x000000008082e670       0x70 fs/built-in.o
                0x000000008082e670                ubifs_read_node
 .text.ubifs_read_node_wbuf
                0x000000008082e6e0       0xc0 fs/built-in.o
                0x000000008082e6e0                ubifs_read_node_wbuf
 .text.ubifs_wbuf_init
                0x000000008082e7a0       0x70 fs/built-in.o
                0x000000008082e7a0                ubifs_wbuf_init
 .text.ubifs_dirty_inode
                0x000000008082e810       0x12 fs/built-in.o
 .text.sb_test  0x000000008082e822       0x14 fs/built-in.o
 .text.sb_set   0x000000008082e836        0x8 fs/built-in.o
 .text.free_wbufs
                0x000000008082e83e       0x36 fs/built-in.o
 .text.free_orphans
                0x000000008082e874       0x56 fs/built-in.o
 .text.kill_ubifs_super
                0x000000008082e8ca        0x8 fs/built-in.o
 *fill*         0x000000008082e8d2        0x2 
 .text.ubifs_alloc_inode
                0x000000008082e8d4       0x24 fs/built-in.o
 .text.bud_wbuf_callback
                0x000000008082e8f8       0x10 fs/built-in.o
 .text.iget_locked
                0x000000008082e908       0x2e fs/built-in.o
                0x000000008082e908                iget_locked
 .text.ubifs_iput
                0x000000008082e936       0x1a fs/built-in.o
                0x000000008082e936                ubifs_iput
 .text.iput     0x000000008082e950       0x38 fs/built-in.o
                0x000000008082e950                iput
 .text.clear_nlink
                0x000000008082e988       0x26 fs/built-in.o
                0x000000008082e988                clear_nlink
 .text.set_nlink
                0x000000008082e9ae       0x32 fs/built-in.o
                0x000000008082e9ae                set_nlink
 .text.ubifs_iget
                0x000000008082e9e0      0x3a0 fs/built-in.o
                0x000000008082e9e0                ubifs_iget
 .text.ubifs_umount
                0x000000008082ed80       0x98 fs/built-in.o
                0x000000008082ed80                ubifs_umount
 .text.sget     0x000000008082ee18       0x68 fs/built-in.o
                0x000000008082ee18                sget
 .text.ubifs_mount
                0x000000008082ee80      0xa7c fs/built-in.o
 .text.ubifs_init
                0x000000008082f8fc       0x1c fs/built-in.o
                0x000000008082f8fc                ubifs_init
 .text.uboot_ubifs_mount
                0x000000008082f918       0x44 fs/built-in.o
                0x000000008082f918                uboot_ubifs_mount
 .text.key_r5_hash
                0x000000008082f95c       0x28 fs/built-in.o
 .text.key_test_hash
                0x000000008082f984       0x2e fs/built-in.o
 .text.ubifs_read_sb_node
                0x000000008082f9b2       0x44 fs/built-in.o
                0x000000008082f9b2                ubifs_read_sb_node
 *fill*         0x000000008082f9f6        0x2 
 .text.ubifs_read_superblock
                0x000000008082f9f8      0x4e8 fs/built-in.o
                0x000000008082f9f8                ubifs_read_superblock
 .text.ubifs_read_master
                0x000000008082fee0      0x9d2 fs/built-in.o
                0x000000008082fee0                ubifs_read_master
 .text.do_calc_lpt_geom
                0x00000000808308b2      0x32e fs/built-in.o
 .text.calc_nnode_num_from_parent
                0x0000000080830be0       0x26 fs/built-in.o
 .text.validate_nnode
                0x0000000080830c06       0x78 fs/built-in.o
 .text.update_cats
                0x0000000080830c7e       0x26 fs/built-in.o
 .text.calc_pnode_num_from_parent.isra.0
                0x0000000080830ca4       0x24 fs/built-in.o
 .text.validate_pnode
                0x0000000080830cc8       0x6a fs/built-in.o
 .text.ubifs_calc_lpt_geom
                0x0000000080830d32       0x72 fs/built-in.o
                0x0000000080830d32                ubifs_calc_lpt_geom
 .text.ubifs_unpack_bits
                0x0000000080830da4       0xbc fs/built-in.o
                0x0000000080830da4                ubifs_unpack_bits
 .text.check_lpt_crc.isra.2
                0x0000000080830e60       0x34 fs/built-in.o
 .text.unpack_pnode
                0x0000000080830e94       0xa2 fs/built-in.o
 .text.ubifs_add_lpt_dirt
                0x0000000080830f36       0x1c fs/built-in.o
                0x0000000080830f36                ubifs_add_lpt_dirt
 .text.ubifs_add_nnode_dirt
                0x0000000080830f52       0x48 fs/built-in.o
                0x0000000080830f52                ubifs_add_nnode_dirt
 .text.dirty_cow_nnode
                0x0000000080830f9a       0xaa fs/built-in.o
 .text.ubifs_unpack_nnode
                0x0000000080831044       0x88 fs/built-in.o
                0x0000000080831044                ubifs_unpack_nnode
 .text.ubifs_read_nnode
                0x00000000808310cc       0xd4 fs/built-in.o
                0x00000000808310cc                ubifs_read_nnode
 .text.ubifs_get_nnode
                0x00000000808311a0       0x1a fs/built-in.o
                0x00000000808311a0                ubifs_get_nnode
 .text.ubifs_get_pnode
                0x00000000808311ba      0x12c fs/built-in.o
                0x00000000808311ba                ubifs_get_pnode
 .text.ubifs_lpt_lookup_dirty
                0x00000000808312e6      0x176 fs/built-in.o
                0x00000000808312e6                ubifs_lpt_lookup_dirty
 .text.ubifs_lpt_init
                0x000000008083145c      0x16a fs/built-in.o
                0x000000008083145c                ubifs_lpt_init
 .text.ubifs_lpt_free
                0x00000000808315c6      0x12e fs/built-in.o
                0x00000000808315c6                ubifs_lpt_free
 .text.ubifs_scan_a_node
                0x00000000808316f4       0xe4 fs/built-in.o
                0x00000000808316f4                ubifs_scan_a_node
 .text.ubifs_start_scan
                0x00000000808317d8       0x5e fs/built-in.o
                0x00000000808317d8                ubifs_start_scan
 .text.ubifs_end_scan
                0x0000000080831836       0x10 fs/built-in.o
                0x0000000080831836                ubifs_end_scan
 *fill*         0x0000000080831846        0x2 
 .text.ubifs_add_snod
                0x0000000080831848       0x98 fs/built-in.o
                0x0000000080831848                ubifs_add_snod
 .text.ubifs_scanned_corruption
                0x00000000808318e0        0x2 fs/built-in.o
                0x00000000808318e0                ubifs_scanned_corruption
 .text.ubifs_scan_destroy
                0x00000000808318e2       0x2c fs/built-in.o
                0x00000000808318e2                ubifs_scan_destroy
 .text.ubifs_scan
                0x000000008083190e       0xe6 fs/built-in.o
                0x000000008083190e                ubifs_scan
 .text.get_heap_comp_val
                0x00000000808319f4       0x16 fs/built-in.o
 .text.move_up_lpt_heap.isra.0
                0x0000000080831a0a       0x52 fs/built-in.o
 .text.adjust_lpt_heap.isra.1
                0x0000000080831a5c       0xfc fs/built-in.o
 .text.remove_from_lpt_heap.isra.3
                0x0000000080831b58       0x46 fs/built-in.o
 .text.ubifs_add_to_cat
                0x0000000080831b9e      0x120 fs/built-in.o
                0x0000000080831b9e                ubifs_add_to_cat
 .text.ubifs_replace_cat
                0x0000000080831cbe       0x42 fs/built-in.o
                0x0000000080831cbe                ubifs_replace_cat
 .text.ubifs_categorize_lprops
                0x0000000080831d00       0x5a fs/built-in.o
                0x0000000080831d00                ubifs_categorize_lprops
 .text.ubifs_calc_dark
                0x0000000080831d5a       0x18 fs/built-in.o
                0x0000000080831d5a                ubifs_calc_dark
 *fill*         0x0000000080831d72        0x2 
 .text.ubifs_change_lp
                0x0000000080831d74      0x270 fs/built-in.o
                0x0000000080831d74                ubifs_change_lp
 .text.ubifs_change_one_lp
                0x0000000080831fe4       0x3c fs/built-in.o
                0x0000000080831fe4                ubifs_change_one_lp
 .text.ubifs_update_one_lp
                0x0000000080832020       0x3e fs/built-in.o
                0x0000000080832020                ubifs_update_one_lp
 .text.insert_zbranch
                0x000000008083205e       0x9e fs/built-in.o
 .text.insert_old_idx
                0x00000000808320fc       0x5c fs/built-in.o
 .text.get_znode
                0x0000000080832158       0x20 fs/built-in.o
 .text.tnc_prev
                0x0000000080832178       0x4a fs/built-in.o
 .text.tnc_next
                0x00000000808321c2       0x50 fs/built-in.o
 *fill*         0x0000000080832212        0x2 
 .text.fallible_read_node
                0x0000000080832214       0xc8 fs/built-in.o
 .text.lnc_free.isra.0
                0x00000000808322dc       0x12 fs/built-in.o
 .text.key_in_range.isra.2
                0x00000000808322ee       0x32 fs/built-in.o
 .text.correct_parent_keys.isra.3
                0x0000000080832320       0x36 fs/built-in.o
 .text.fallible_matches_name
                0x0000000080832356       0x9c fs/built-in.o
 .text.fallible_resolve_collision
                0x00000000808323f2      0x186 fs/built-in.o
 .text.tnc_read_node_nm
                0x0000000080832578       0x48 fs/built-in.o
 .text.tnc_insert.constprop.8
                0x00000000808325c0      0x2d2 fs/built-in.o
 *fill*         0x0000000080832892        0x2 
 .text.dirty_cow_znode
                0x0000000080832894      0x180 fs/built-in.o
 .text.dirty_cow_bottom_up
                0x0000000080832a14       0xa0 fs/built-in.o
 .text.lookup_level0_dirty
                0x0000000080832ab4      0x10e fs/built-in.o
 .text.matches_name
                0x0000000080832bc2       0x96 fs/built-in.o
 .text.resolve_collision
                0x0000000080832c58      0x10e fs/built-in.o
 .text.insert_old_idx_znode
                0x0000000080832d66       0x32 fs/built-in.o
                0x0000000080832d66                insert_old_idx_znode
 .text.tnc_delete
                0x0000000080832d98      0x20c fs/built-in.o
 .text.destroy_old_idx
                0x0000000080832fa4       0x28 fs/built-in.o
                0x0000000080832fa4                destroy_old_idx
 .text.ubifs_lookup_level0
                0x0000000080832fcc       0xd2 fs/built-in.o
                0x0000000080832fcc                ubifs_lookup_level0
 .text.ubifs_tnc_locate
                0x000000008083309e       0xb4 fs/built-in.o
                0x000000008083309e                ubifs_tnc_locate
 *fill*         0x0000000080833152        0x2 
 .text.ubifs_tnc_add
                0x0000000080833154       0x84 fs/built-in.o
                0x0000000080833154                ubifs_tnc_add
 .text.ubifs_tnc_remove
                0x00000000808331d8       0x30 fs/built-in.o
                0x00000000808331d8                ubifs_tnc_remove
 .text.ubifs_tnc_remove_nm
                0x0000000080833208       0x78 fs/built-in.o
                0x0000000080833208                ubifs_tnc_remove_nm
 .text.ubifs_tnc_add_nm
                0x0000000080833280      0x110 fs/built-in.o
                0x0000000080833280                ubifs_tnc_add_nm
 .text.ubifs_tnc_remove_range
                0x0000000080833390      0x14c fs/built-in.o
                0x0000000080833390                ubifs_tnc_remove_range
 .text.ubifs_tnc_next_ent
                0x00000000808334dc       0xac fs/built-in.o
                0x00000000808334dc                ubifs_tnc_next_ent
 .text.ubifs_tnc_remove_ino
                0x0000000080833588       0xd4 fs/built-in.o
                0x0000000080833588                ubifs_tnc_remove_ino
 .text.ubifs_tnc_close
                0x000000008083365c       0x6c fs/built-in.o
                0x000000008083365c                ubifs_tnc_close
 .text.ubifs_search_zbranch
                0x00000000808336c8       0x4a fs/built-in.o
                0x00000000808336c8                ubifs_search_zbranch
 .text.ubifs_tnc_postorder_first
                0x0000000080833712       0x2a fs/built-in.o
                0x0000000080833712                ubifs_tnc_postorder_first
 .text.ubifs_tnc_postorder_next
                0x000000008083373c       0x2c fs/built-in.o
                0x000000008083373c                ubifs_tnc_postorder_next
 .text.ubifs_destroy_tnc_subtree
                0x0000000080833768       0x5c fs/built-in.o
                0x0000000080833768                ubifs_destroy_tnc_subtree
 .text.ubifs_load_znode
                0x00000000808337c4      0x218 fs/built-in.o
                0x00000000808337c4                ubifs_load_znode
 .text.ubifs_tnc_read_node
                0x00000000808339dc       0x50 fs/built-in.o
                0x00000000808339dc                ubifs_tnc_read_node
 .text.ubifs_dump_inode
                0x0000000080833a2c        0x2 fs/built-in.o
                0x0000000080833a2c                ubifs_dump_inode
 .text.ubifs_dump_node
                0x0000000080833a2e        0x2 fs/built-in.o
                0x0000000080833a2e                ubifs_dump_node
 .text.ubifs_dump_znode
                0x0000000080833a30        0x2 fs/built-in.o
                0x0000000080833a30                ubifs_dump_znode
 .text.ubifs_dump_pnode
                0x0000000080833a32        0x2 fs/built-in.o
                0x0000000080833a32                ubifs_dump_pnode
 .text.dbg_check_dir
                0x0000000080833a34        0x4 fs/built-in.o
                0x0000000080833a34                dbg_check_dir
 .text.dbg_debugfs_exit_fs
                0x0000000080833a38        0x2 fs/built-in.o
                0x0000000080833a38                dbg_debugfs_exit_fs
 .text.ubifs_debugging_init
                0x0000000080833a3a        0x4 fs/built-in.o
                0x0000000080833a3a                ubifs_debugging_init
 .text.ubifs_debugging_exit
                0x0000000080833a3e        0x2 fs/built-in.o
                0x0000000080833a3e                ubifs_debugging_exit
 .text.dbg_check_filesystem
                0x0000000080833a40        0x4 fs/built-in.o
                0x0000000080833a40                dbg_check_filesystem
 .text.dbg_debugfs_init_fs
                0x0000000080833a44        0x4 fs/built-in.o
                0x0000000080833a44                dbg_debugfs_init_fs
 .text.dbg_check_tnc
                0x0000000080833a48        0x4 fs/built-in.o
                0x0000000080833a48                dbg_check_tnc
 .text.dbg_check_idx_size
                0x0000000080833a4c        0x4 fs/built-in.o
                0x0000000080833a4c                dbg_check_idx_size
 .text.crc16    0x0000000080833a50       0x24 fs/built-in.o
                0x0000000080833a50                crc16
 .text.ubifs_calc_min_idx_lebs
                0x0000000080833a74       0x6c fs/built-in.o
                0x0000000080833a74                ubifs_calc_min_idx_lebs
 .text.ubifs_reported_space
                0x0000000080833ae0       0x54 fs/built-in.o
                0x0000000080833ae0                ubifs_reported_space
 .text.ubifs_search_bud
                0x0000000080833b34       0x1c fs/built-in.o
                0x0000000080833b34                ubifs_search_bud
 .text.ubifs_get_wbuf
                0x0000000080833b50       0x2a fs/built-in.o
                0x0000000080833b50                ubifs_get_wbuf
 .text.ubifs_add_bud
                0x0000000080833b7a       0x68 fs/built-in.o
                0x0000000080833b7a                ubifs_add_bud
 .text.ubifs_clear_orphans
                0x0000000080833be2       0x2e fs/built-in.o
                0x0000000080833be2                ubifs_clear_orphans
 .text.ubifs_mount_orphans
                0x0000000080833c10      0x286 fs/built-in.o
                0x0000000080833c10                ubifs_mount_orphans
 .text.is_empty
                0x0000000080833e96       0x18 fs/built-in.o
 .text.find_ino
                0x0000000080833eae       0x18 fs/built-in.o
 *fill*         0x0000000080833ec6        0x2 
 .text.get_master_node
                0x0000000080833ec8      0x130 fs/built-in.o
 .text.add_ino  0x0000000080833ff8       0x62 fs/built-in.o
 .text.ubifs_recover_master_node
                0x000000008083405a      0x174 fs/built-in.o
                0x000000008083405a                ubifs_recover_master_node
 .text.ubifs_recover_leb
                0x00000000808341ce      0x2ca fs/built-in.o
                0x00000000808341ce                ubifs_recover_leb
 .text.ubifs_recover_log_leb
                0x0000000080834498      0x176 fs/built-in.o
                0x0000000080834498                ubifs_recover_log_leb
 .text.ubifs_destroy_size_tree
                0x000000008083460e       0x32 fs/built-in.o
                0x000000008083460e                ubifs_destroy_size_tree
 .text.ubifs_recover_size_accum
                0x0000000080834640       0x9a fs/built-in.o
                0x0000000080834640                ubifs_recover_size_accum
 .text.ubifs_recover_size
                0x00000000808346da      0x104 fs/built-in.o
                0x00000000808346da                ubifs_recover_size
 .text.replay_entries_cmp
                0x00000000808347de       0x20 fs/built-in.o
 .text.insert_node
                0x00000000808347fe       0x92 fs/built-in.o
 .text.ubifs_validate_entry
                0x0000000080834890       0xa4 fs/built-in.o
                0x0000000080834890                ubifs_validate_entry
 .text.ubifs_replay_journal
                0x0000000080834934      0xa30 fs/built-in.o
                0x0000000080834934                ubifs_replay_journal
 .text.ubifs_destroy_idx_gc
                0x0000000080835364       0x30 fs/built-in.o
                0x0000000080835364                ubifs_destroy_idx_gc
 .text.efi_return_handle
                0x0000000080835394        0x6 lib/built-in.o
                0x0000000080835394                efi_return_handle
 *fill*         0x000000008083539a        0x2 
 .text.efi_load_pe
                0x000000008083539c      0x1bc lib/built-in.o
                0x000000008083539c                efi_load_pe
 .text.efi_search.isra.0.part.1
                0x0000000080835558       0x28 lib/built-in.o
 .text.efi_save_gd
                0x0000000080835580        0xc lib/built-in.o
                0x0000000080835580                efi_save_gd
 .text.efi_restore_gd
                0x000000008083558c       0x20 lib/built-in.o
                0x000000008083558c                efi_restore_gd
 .text.efi_set_mem
                0x00000000808355ac       0x16 lib/built-in.o
 .text.efi_copy_mem
                0x00000000808355c2       0x16 lib/built-in.o
 .text.efi_allocate_pages_ext
                0x00000000808355d8       0x24 lib/built-in.o
                0x00000000808355d8                efi_allocate_pages_ext
 .text.efi_free_pages_ext
                0x00000000808355fc       0x24 lib/built-in.o
                0x00000000808355fc                efi_free_pages_ext
 .text.efi_get_memory_map_ext
                0x0000000080835620       0x28 lib/built-in.o
                0x0000000080835620                efi_get_memory_map_ext
 .text.efi_calculate_crc32
                0x0000000080835648       0x24 lib/built-in.o
 .text.efi_uninstall_multiple_protocol_interfaces
                0x000000008083566c       0x20 lib/built-in.o
 .text.efi_install_multiple_protocol_interfaces
                0x000000008083568c       0x20 lib/built-in.o
 .text.efi_locate_protocol
                0x00000000808356ac       0x38 lib/built-in.o
 .text.efi_locate_handle_buffer
                0x00000000808356e4       0x18 lib/built-in.o
 .text.efi_protocols_per_handle
                0x00000000808356fc       0x18 lib/built-in.o
 .text.efi_open_protocol_information
                0x0000000080835714       0x18 lib/built-in.o
 .text.efi_open_protocol
                0x000000008083572c       0x7c lib/built-in.o
 .text.efi_handle_protocol
                0x00000000808357a8       0x12 lib/built-in.o
 *fill*         0x00000000808357ba        0x2 
 .text.efi_disconnect_controller
                0x00000000808357bc       0x18 lib/built-in.o
 .text.efi_connect_controller
                0x00000000808357d4       0x18 lib/built-in.o
 .text.efi_set_watchdog_timer
                0x00000000808357ec       0x18 lib/built-in.o
 .text.efi_stall
                0x0000000080835804       0x18 lib/built-in.o
 .text.efi_get_next_monotonic_count
                0x000000008083581c       0x2c lib/built-in.o
 .text.efi_exit_boot_services
                0x0000000080835848       0x2c lib/built-in.o
 .text.efi_unload_image
                0x0000000080835874       0x3c lib/built-in.o
 .text.efi_exit
                0x00000000808358b0       0x18 lib/built-in.o
 .text.efi_start_image
                0x00000000808358c8       0x28 lib/built-in.o
 .text.efi_load_image
                0x00000000808358f0       0x7c lib/built-in.o
 .text.efi_install_configuration_table
                0x000000008083596c       0x74 lib/built-in.o
 .text.efi_locate_device_path
                0x00000000808359e0       0x18 lib/built-in.o
 .text.efi_locate_handle
                0x00000000808359f8       0x8c lib/built-in.o
 .text.efi_reinstall_protocol_interface
                0x0000000080835a84       0x18 lib/built-in.o
 .text.efi_install_protocol_interface
                0x0000000080835a9c       0x18 lib/built-in.o
 .text.efi_check_event
                0x0000000080835ab4       0x18 lib/built-in.o
 .text.efi_close_event
                0x0000000080835acc       0x28 lib/built-in.o
 .text.efi_signal_event
                0x0000000080835af4       0x14 lib/built-in.o
 .text.efi_set_timer
                0x0000000080835b08       0x90 lib/built-in.o
 .text.efi_create_event
                0x0000000080835b98       0x48 lib/built-in.o
 .text.efi_free_pool
                0x0000000080835be0       0x1c lib/built-in.o
 .text.efi_allocate_pool
                0x0000000080835bfc       0x28 lib/built-in.o
 .text.efi_restore_tpl
                0x0000000080835c24       0x14 lib/built-in.o
 .text.efi_raise_tpl
                0x0000000080835c38       0x14 lib/built-in.o
 .text.efi_close_protocol
                0x0000000080835c4c       0x18 lib/built-in.o
 .text.efi_uninstall_protocol_interface
                0x0000000080835c64       0x18 lib/built-in.o
 .text.efi_register_protocol_notify
                0x0000000080835c7c       0x18 lib/built-in.o
 .text.efi_exit_func
                0x0000000080835c94        0xc lib/built-in.o
                0x0000000080835c94                efi_exit_func
 .text.efi_timer_check
                0x0000000080835ca0       0x48 lib/built-in.o
                0x0000000080835ca0                efi_timer_check
 .text.efi_wait_for_event
                0x0000000080835ce8       0x30 lib/built-in.o
 .text.efi_get_time
                0x0000000080835d18        0x8 lib/built-in.o
 .text.efi_reset_system
                0x0000000080835d20       0x22 lib/built-in.o
 *fill*         0x0000000080835d42        0x2 
 .text.efi_runtime_relocate
                0x0000000080835d44       0xd4 lib/built-in.o
                0x0000000080835d44                efi_runtime_relocate
 .text.efi_set_virtual_address_map
                0x0000000080835e18       0x78 lib/built-in.o
 .text.efi_cin_lock_std_in
                0x0000000080835e90       0x14 lib/built-in.o
 .text.efi_cin_set_mode
                0x0000000080835ea4       0x14 lib/built-in.o
 .text.efi_cin_get_mode
                0x0000000080835eb8       0x28 lib/built-in.o
 .text.efi_cout_set_attribute
                0x0000000080835ee0       0x14 lib/built-in.o
 .text.efi_cout_test_string
                0x0000000080835ef4       0x10 lib/built-in.o
 .text.efi_cout_reset
                0x0000000080835f04       0x14 lib/built-in.o
 .text.efi_cin_reset
                0x0000000080835f18       0x14 lib/built-in.o
 .text.efi_cout_enable_cursor
                0x0000000080835f2c       0x24 lib/built-in.o
 .text.efi_cout_set_cursor_position
                0x0000000080835f50       0x2c lib/built-in.o
 .text.efi_cout_clear_screen
                0x0000000080835f7c       0x1c lib/built-in.o
 .text.efi_cout_output_string
                0x0000000080835f98       0xa4 lib/built-in.o
 .text.efi_cout_set_mode
                0x000000008083603c       0x1c lib/built-in.o
 .text.efi_cin_read_key_stroke
                0x0000000080836058       0xc0 lib/built-in.o
 .text.efi_cout_query_mode
                0x0000000080836118       0xd8 lib/built-in.o
 .text.efi_mem_cmp
                0x00000000808361f0       0x20 lib/built-in.o
 .text.efi_find_free_memory
                0x0000000080836210       0x78 lib/built-in.o
 .text.efi_add_memory_map
                0x0000000080836288      0x1e4 lib/built-in.o
                0x0000000080836288                efi_add_memory_map
 .text.efi_allocate_pages
                0x000000008083646c       0x80 lib/built-in.o
                0x000000008083646c                efi_allocate_pages
 .text.efi_alloc
                0x00000000808364ec       0x38 lib/built-in.o
                0x00000000808364ec                efi_alloc
 .text.efi_free_pages
                0x0000000080836524        0x4 lib/built-in.o
                0x0000000080836524                efi_free_pages
 .text.efi_get_memory_map
                0x0000000080836528       0x64 lib/built-in.o
                0x0000000080836528                efi_get_memory_map
 .text.efi_memory_init
                0x000000008083658c       0x8c lib/built-in.o
                0x000000008083658c                efi_memory_init
 .text.efi_disk_open_block
                0x0000000080836618        0x8 lib/built-in.o
 .text.efi_disk_open_dp
                0x0000000080836620        0x8 lib/built-in.o
 .text.efi_disk_flush_blocks
                0x0000000080836628       0x10 lib/built-in.o
 .text.efi_disk_reset
                0x0000000080836638       0x14 lib/built-in.o
 .text.efi_disk_add_dev.isra.0
                0x000000008083664c       0xe0 lib/built-in.o
 .text.efi_disk_rw_blocks.isra.1
                0x000000008083672c       0x78 lib/built-in.o
 .text.efi_disk_write_blocks
                0x00000000808367a4       0x18 lib/built-in.o
 .text.efi_disk_read_blocks
                0x00000000808367bc       0x18 lib/built-in.o
 .text.efi_disk_register
                0x00000000808367d4       0xdc lib/built-in.o
                0x00000000808367d4                efi_disk_register
 .text.subtract_modulus
                0x00000000808368b0       0x30 lib/built-in.o
 .text.montgomery_mul
                0x00000000808368e0       0xf6 lib/built-in.o
 .text.rsa_convert_big_endian
                0x00000000808369d6       0x1c lib/built-in.o
 .text.rsa_mod_exp_sw
                0x00000000808369f2      0x210 lib/built-in.o
                0x00000000808369f2                rsa_mod_exp_sw
 .text.lzo1x_decompress_safe
                0x0000000080836c02      0x456 lib/built-in.o
                0x0000000080836c02                lzo1x_decompress_safe
 .text.lzop_decompress
                0x0000000080837058       0xf4 lib/built-in.o
                0x0000000080837058                lzop_decompress
 .text.zcalloc  0x000000008083714c        0x8 lib/built-in.o
                0x000000008083714c                zcalloc
 .text.zcfree   0x0000000080837154        0x6 lib/built-in.o
                0x0000000080837154                zcfree
 *fill*         0x000000008083715a        0x2 
 .text.inflate_fast
                0x000000008083715c      0x3b4 lib/built-in.o
                0x000000008083715c                inflate_fast
 .text.inflate_table
                0x0000000080837510      0x340 lib/built-in.o
                0x0000000080837510                inflate_table
 .text.inflateReset
                0x0000000080837850       0x46 lib/built-in.o
                0x0000000080837850                inflateReset
 *fill*         0x0000000080837896        0x2 
 .text.inflateInit2_
                0x0000000080837898       0x9c lib/built-in.o
                0x0000000080837898                inflateInit2_
 .text.inflateEnd
                0x0000000080837934       0x36 lib/built-in.o
                0x0000000080837934                inflateEnd
 .text.adler32  0x000000008083796a      0x226 lib/built-in.o
                0x000000008083796a                adler32
 .text.inflate  0x0000000080837b90      0xd2c lib/built-in.o
                0x0000000080837b90                inflate
 .text.fdt_check_header
                0x00000000808388bc       0x4c lib/built-in.o
                0x00000000808388bc                fdt_check_header
 .text.fdt_offset_ptr
                0x0000000080838908       0x2a lib/built-in.o
                0x0000000080838908                fdt_offset_ptr
 .text.fdt_next_tag
                0x0000000080838932       0x86 lib/built-in.o
                0x0000000080838932                fdt_next_tag
 .text._fdt_check_node_offset
                0x00000000808389b8       0x24 lib/built-in.o
                0x00000000808389b8                _fdt_check_node_offset
 .text._fdt_check_prop_offset
                0x00000000808389dc       0x24 lib/built-in.o
                0x00000000808389dc                _fdt_check_prop_offset
 .text.fdt_next_node
                0x0000000080838a00       0x6e lib/built-in.o
                0x0000000080838a00                fdt_next_node
 .text.fdt_first_subnode
                0x0000000080838a6e       0x28 lib/built-in.o
                0x0000000080838a6e                fdt_first_subnode
 .text.fdt_next_subnode
                0x0000000080838a96       0x2e lib/built-in.o
                0x0000000080838a96                fdt_next_subnode
 .text._fdt_find_string
                0x0000000080838ac4       0x30 lib/built-in.o
                0x0000000080838ac4                _fdt_find_string
 .text.fdt_move
                0x0000000080838af4       0x2a lib/built-in.o
                0x0000000080838af4                fdt_move
 .text.fdt_path_next_seperator
                0x0000000080838b1e       0x24 lib/built-in.o
 .text._nextprop
                0x0000000080838b42       0x36 lib/built-in.o
 .text.fdt_string
                0x0000000080838b78        0xa lib/built-in.o
                0x0000000080838b78                fdt_string
 .text.fdt_get_mem_rsv
                0x0000000080838b82       0x38 lib/built-in.o
                0x0000000080838b82                fdt_get_mem_rsv
 .text.fdt_num_mem_rsv
                0x0000000080838bba       0x22 lib/built-in.o
                0x0000000080838bba                fdt_num_mem_rsv
 .text.fdt_subnode_offset_namelen
                0x0000000080838bdc       0x7c lib/built-in.o
                0x0000000080838bdc                fdt_subnode_offset_namelen
 .text.fdt_subnode_offset
                0x0000000080838c58       0x1e lib/built-in.o
                0x0000000080838c58                fdt_subnode_offset
 .text.fdt_get_name
                0x0000000080838c76       0x3e lib/built-in.o
                0x0000000080838c76                fdt_get_name
 .text.fdt_first_property_offset
                0x0000000080838cb4       0x18 lib/built-in.o
                0x0000000080838cb4                fdt_first_property_offset
 .text.fdt_next_property_offset
                0x0000000080838ccc       0x18 lib/built-in.o
                0x0000000080838ccc                fdt_next_property_offset
 .text.fdt_get_property_by_offset
                0x0000000080838ce4       0x2e lib/built-in.o
                0x0000000080838ce4                fdt_get_property_by_offset
 .text.fdt_get_property_namelen
                0x0000000080838d12       0x6e lib/built-in.o
                0x0000000080838d12                fdt_get_property_namelen
 .text.fdt_get_property
                0x0000000080838d80       0x22 lib/built-in.o
                0x0000000080838d80                fdt_get_property
 .text.fdt_getprop_namelen
                0x0000000080838da2       0x12 lib/built-in.o
                0x0000000080838da2                fdt_getprop_namelen
 .text.fdt_getprop_by_offset
                0x0000000080838db4       0x26 lib/built-in.o
                0x0000000080838db4                fdt_getprop_by_offset
 .text.fdt_getprop
                0x0000000080838dda       0x22 lib/built-in.o
                0x0000000080838dda                fdt_getprop
 .text.fdt_get_alias_namelen
                0x0000000080838dfc       0x2c lib/built-in.o
                0x0000000080838dfc                fdt_get_alias_namelen
 .text.fdt_path_offset
                0x0000000080838e28       0x94 lib/built-in.o
                0x0000000080838e28                fdt_path_offset
 .text.fdt_supernode_atdepth_offset
                0x0000000080838ebc       0x72 lib/built-in.o
                0x0000000080838ebc                fdt_supernode_atdepth_offset
 .text.fdt_node_depth
                0x0000000080838f2e       0x1e lib/built-in.o
                0x0000000080838f2e                fdt_node_depth
 .text.fdt_get_string_index
                0x0000000080838f4c       0x38 lib/built-in.o
                0x0000000080838f4c                fdt_get_string_index
 .text._fdt_blocks_misordered
                0x0000000080838f84       0x36 lib/built-in.o
 .text._fdt_splice
                0x0000000080838fba       0x42 lib/built-in.o
 .text._fdt_splice_mem_rsv
                0x0000000080838ffc       0x2c lib/built-in.o
 .text._fdt_splice_struct
                0x0000000080839028       0x26 lib/built-in.o
 .text._fdt_packblocks
                0x000000008083904e       0x5c lib/built-in.o
 .text._fdt_find_add_string
                0x00000000808390aa       0x5e lib/built-in.o
 .text._fdt_add_property
                0x0000000080839108       0x60 lib/built-in.o
 .text._fdt_rw_check_header
                0x0000000080839168       0x38 lib/built-in.o
 .text.fdt_add_mem_rsv
                0x00000000808391a0       0x52 lib/built-in.o
                0x00000000808391a0                fdt_add_mem_rsv
 .text.fdt_del_mem_rsv
                0x00000000808391f2       0x3e lib/built-in.o
                0x00000000808391f2                fdt_del_mem_rsv
 .text.fdt_setprop
                0x0000000080839230       0x74 lib/built-in.o
                0x0000000080839230                fdt_setprop
 .text.fdt_delprop
                0x00000000808392a4       0x3a lib/built-in.o
                0x00000000808392a4                fdt_delprop
 .text.fdt_add_subnode_namelen
                0x00000000808392de       0x9a lib/built-in.o
                0x00000000808392de                fdt_add_subnode_namelen
 .text.fdt_add_subnode
                0x0000000080839378       0x1e lib/built-in.o
                0x0000000080839378                fdt_add_subnode
 .text.fdt_del_node
                0x0000000080839396       0x32 lib/built-in.o
                0x0000000080839396                fdt_del_node
 .text.fdt_open_into
                0x00000000808393c8       0xf0 lib/built-in.o
                0x00000000808393c8                fdt_open_into
 .text.fdt_strerror
                0x00000000808394b8       0x3c lib/built-in.o
                0x00000000808394b8                fdt_strerror
 .text._fdt_node_end_offset
                0x00000000808394f4       0x28 lib/built-in.o
                0x00000000808394f4                _fdt_node_end_offset
 .text.fdt_address_cells
                0x000000008083951c       0x34 lib/built-in.o
                0x000000008083951c                fdt_address_cells
 .text.fdt_size_cells
                0x0000000080839550       0x34 lib/built-in.o
                0x0000000080839550                fdt_size_cells
 .text.crc16_ccitt
                0x0000000080839584       0x28 lib/built-in.o
                0x0000000080839584                crc16_ccitt
 .text.gzalloc  0x00000000808395ac        0xe lib/built-in.o
                0x00000000808395ac                gzalloc
 .text.gzfree   0x00000000808395ba        0x6 lib/built-in.o
                0x00000000808395ba                gzfree
 .text.zunzip   0x00000000808395c0       0xa8 lib/built-in.o
                0x00000000808395c0                zunzip
 .text.gunzip   0x0000000080839668       0x74 lib/built-in.o
                0x0000000080839668                gunzip
 .text.initcall_run_list
                0x00000000808396dc       0x40 lib/built-in.o
                0x00000000808396dc                initcall_run_list
 .text.lmb_add_region
                0x000000008083971c       0xf6 lib/built-in.o
 .text.lmb_init
                0x0000000080839812       0x16 lib/built-in.o
                0x0000000080839812                lmb_init
 .text.lmb_add  0x0000000080839828        0x4 lib/built-in.o
                0x0000000080839828                lmb_add
 .text.lmb_free
                0x000000008083982c       0x86 lib/built-in.o
                0x000000008083982c                lmb_free
 .text.lmb_reserve
                0x00000000808398b2        0x6 lib/built-in.o
                0x00000000808398b2                lmb_reserve
 .text.__lmb_alloc_base
                0x00000000808398b8       0xbc lib/built-in.o
                0x00000000808398b8                __lmb_alloc_base
 .text.lmb_alloc_base
                0x0000000080839974       0x20 lib/built-in.o
                0x0000000080839974                lmb_alloc_base
 .text.lmb_alloc
                0x0000000080839994        0x6 lib/built-in.o
                0x0000000080839994                lmb_alloc
 .text.board_lmb_reserve
                0x000000008083999a        0x2 lib/built-in.o
                0x000000008083999a                board_lmb_reserve
 .text.MD5Transform
                0x000000008083999c      0x698 lib/built-in.o
 .text.MD5Update
                0x000000008083a034       0x82 lib/built-in.o
 .text.MD5Final
                0x000000008083a0b6       0x6a lib/built-in.o
 .text.md5_wd   0x000000008083a120       0x64 lib/built-in.o
                0x000000008083a120                md5_wd
 .text.string_to_ip
                0x000000008083a184       0x36 lib/built-in.o
                0x000000008083a184                string_to_ip
 *fill*         0x000000008083a1ba        0x2 
 .text.qsort    0x000000008083a1bc       0x88 lib/built-in.o
                0x000000008083a1bc                qsort
 .text.strcmp_compar
                0x000000008083a244        0x8 lib/built-in.o
                0x000000008083a244                strcmp_compar
 .text.sha1_process
                0x000000008083a24c      0xf60 lib/built-in.o
 .text.sha1_update.part.0
                0x000000008083b1ac       0x78 lib/built-in.o
 .text.sha1_starts
                0x000000008083b224       0x34 lib/built-in.o
                0x000000008083b224                sha1_starts
 .text.sha1_update
                0x000000008083b258        0x8 lib/built-in.o
                0x000000008083b258                sha1_update
 .text.sha1_finish
                0x000000008083b260       0xc8 lib/built-in.o
                0x000000008083b260                sha1_finish
 .text.sha1_csum_wd
                0x000000008083b328       0x40 lib/built-in.o
                0x000000008083b328                sha1_csum_wd
 .text.sha256_process
                0x000000008083b368     0x1c4c lib/built-in.o
 .text.sha256_update.part.0
                0x000000008083cfb4       0x78 lib/built-in.o
 .text.sha256_starts
                0x000000008083d02c       0x50 lib/built-in.o
                0x000000008083d02c                sha256_starts
 .text.sha256_update
                0x000000008083d07c        0x8 lib/built-in.o
                0x000000008083d07c                sha256_update
 .text.sha256_finish
                0x000000008083d084      0x100 lib/built-in.o
                0x000000008083d084                sha256_finish
 .text.sha256_csum_wd
                0x000000008083d184       0x40 lib/built-in.o
                0x000000008083d184                sha256_csum_wd
 .text.rb_insert_color
                0x000000008083d1c4       0xa0 lib/built-in.o
                0x000000008083d1c4                rb_insert_color
 .text.rb_erase
                0x000000008083d264      0x1d8 lib/built-in.o
                0x000000008083d264                rb_erase
 .text.rb_first
                0x000000008083d43c       0x10 lib/built-in.o
                0x000000008083d43c                rb_first
 .text.rb_last  0x000000008083d44c       0x10 lib/built-in.o
                0x000000008083d44c                rb_last
 .text.rb_next  0x000000008083d45c       0x30 lib/built-in.o
                0x000000008083d45c                rb_next
 .text.rb_next_postorder
                0x000000008083d48c       0x28 lib/built-in.o
                0x000000008083d48c                rb_next_postorder
 .text.rb_first_postorder
                0x000000008083d4b4       0x18 lib/built-in.o
                0x000000008083d4b4                rb_first_postorder
 .text.merge    0x000000008083d4cc       0x36 lib/built-in.o
 *fill*         0x000000008083d502        0x2 
 .text.list_sort
                0x000000008083d504       0xe8 lib/built-in.o
                0x000000008083d504                list_sort
 .text.cmpkey   0x000000008083d5ec        0xc lib/built-in.o
 .text._hdelete.isra.0
                0x000000008083d5f8       0x30 lib/built-in.o
 .text.drop_var_from_set.part.1
                0x000000008083d628       0x30 lib/built-in.o
 .text.match_string
                0x000000008083d658       0x7c lib/built-in.o
 .text.match_entry
                0x000000008083d6d4       0x7c lib/built-in.o
 .text.hcreate_r
                0x000000008083d750       0x60 lib/built-in.o
                0x000000008083d750                hcreate_r
 .text.hdestroy_r
                0x000000008083d7b0       0x48 lib/built-in.o
                0x000000008083d7b0                hdestroy_r
 .text.hmatch_r
                0x000000008083d7f8       0x5c lib/built-in.o
                0x000000008083d7f8                hmatch_r
 .text.hsearch_r
                0x000000008083d854      0x2c4 lib/built-in.o
                0x000000008083d854                hsearch_r
 .text.hdelete_r
                0x000000008083db18       0x80 lib/built-in.o
                0x000000008083db18                hdelete_r
 .text.hexport_r
                0x000000008083db98      0x19c lib/built-in.o
                0x000000008083db98                hexport_r
 .text.himport_r
                0x000000008083dd34      0x250 lib/built-in.o
                0x000000008083dd34                himport_r
 .text.hwalk_r  0x000000008083df84       0x30 lib/built-in.o
                0x000000008083df84                hwalk_r
 .text.display_options
                0x000000008083dfb4       0x18 lib/built-in.o
                0x000000008083dfb4                display_options
 .text.print_size
                0x000000008083dfcc       0xe0 lib/built-in.o
                0x000000008083dfcc                print_size
 .text.print_buffer
                0x000000008083e0ac      0x120 lib/built-in.o
                0x000000008083e0ac                print_buffer
 .text.crc32_no_comp
                0x000000008083e1cc       0x8c lib/built-in.o
                0x000000008083e1cc                crc32_no_comp
 .text.crc32    0x000000008083e258        0xc lib/built-in.o
                0x000000008083e258                crc32
 .text.crc32_wd
                0x000000008083e264       0x32 lib/built-in.o
                0x000000008083e264                crc32_wd
 .text.crc32_wd_buf
                0x000000008083e296       0x22 lib/built-in.o
                0x000000008083e296                crc32_wd_buf
 .text.__div64_32
                0x000000008083e2b8       0x7e lib/built-in.o
                0x000000008083e2b8                __div64_32
 *fill*         0x000000008083e336        0x2 
 .text.hang     0x000000008083e338       0x18 lib/built-in.o
                0x000000008083e338                hang
 .text.copy_from_user
                0x000000008083e350        0xa lib/built-in.o
                0x000000008083e350                copy_from_user
 .text.kmalloc  0x000000008083e35a       0x20 lib/built-in.o
                0x000000008083e35a                kmalloc
 .text.get_mem  0x000000008083e37a       0x10 lib/built-in.o
                0x000000008083e37a                get_mem
 .text.kmem_cache_alloc
                0x000000008083e38a        0x8 lib/built-in.o
                0x000000008083e38a                kmem_cache_alloc
 *fill*         0x000000008083e392        0x2 
 .text.skip_spaces
                0x000000008083e394       0x18 lib/built-in.o
                0x000000008083e394                skip_spaces
 .text.strim    0x000000008083e3ac       0x34 lib/built-in.o
                0x000000008083e3ac                strim
 .text.emit     0x000000008083e3e0       0x20 lib/built-in.o
 .text.store_char_in_data
                0x000000008083e400       0x24 lib/built-in.o
 .text.get_escape_char
                0x000000008083e424       0x48 lib/built-in.o
 .text.relocate
                0x000000008083e46c       0x2a lib/built-in.o
 *fill*         0x000000008083e496        0x2 
 .text.match    0x000000008083e498      0x260 lib/built-in.o
 .text.loop_greedy
                0x000000008083e6f8       0x56 lib/built-in.o
 .text.loop_non_greedy
                0x000000008083e74e       0x4c lib/built-in.o
 *fill*         0x000000008083e79a        0x2 
 .text.quantifier
                0x000000008083e79c       0x5c lib/built-in.o
 .text.fixup_branch
                0x000000008083e7f8       0x28 lib/built-in.o
 .text.compile  0x000000008083e820      0x230 lib/built-in.o
 .text.slre_compile
                0x000000008083ea50       0x90 lib/built-in.o
                0x000000008083ea50                slre_compile
 .text.slre_match
                0x000000008083eae0       0x58 lib/built-in.o
                0x000000008083eae0                slre_match
 .text.strncasecmp
                0x000000008083eb38       0x44 lib/built-in.o
                0x000000008083eb38                strncasecmp
 .text.strcasecmp
                0x000000008083eb7c        0x8 lib/built-in.o
                0x000000008083eb7c                strcasecmp
 .text.strcpy   0x000000008083eb84       0x10 lib/built-in.o
                0x000000008083eb84                strcpy
 .text.strncpy  0x000000008083eb94       0x18 lib/built-in.o
                0x000000008083eb94                strncpy
 .text.strcat   0x000000008083ebac       0x1e lib/built-in.o
                0x000000008083ebac                strcat
 .text.strncat  0x000000008083ebca       0x2a lib/built-in.o
                0x000000008083ebca                strncat
 .text.strcmp   0x000000008083ebf4       0x1a lib/built-in.o
                0x000000008083ebf4                strcmp
 .text.strncmp  0x000000008083ec0e       0x26 lib/built-in.o
                0x000000008083ec0e                strncmp
 .text.strchr   0x000000008083ec34       0x18 lib/built-in.o
                0x000000008083ec34                strchr
 .text.strlen   0x000000008083ec4c       0x10 lib/built-in.o
                0x000000008083ec4c                strlen
 .text.strrchr  0x000000008083ec5c       0x20 lib/built-in.o
                0x000000008083ec5c                strrchr
 .text.strnlen  0x000000008083ec7c       0x18 lib/built-in.o
                0x000000008083ec7c                strnlen
 .text.strdup   0x000000008083ec94       0x22 lib/built-in.o
                0x000000008083ec94                strdup
 .text.strspn   0x000000008083ecb6       0x1e lib/built-in.o
                0x000000008083ecb6                strspn
 .text.strpbrk  0x000000008083ecd4       0x20 lib/built-in.o
                0x000000008083ecd4                strpbrk
 .text.strtok   0x000000008083ecf4       0x44 lib/built-in.o
                0x000000008083ecf4                strtok
 .text.strsep   0x000000008083ed38       0x1e lib/built-in.o
                0x000000008083ed38                strsep
 .text.memset   0x000000008083ed56       0x46 lib/built-in.o
                0x000000008083ed56                memset
 .text.memcpy   0x000000008083ed9c       0x4c lib/built-in.o
                0x000000008083ed9c                memcpy
 .text.strlcpy  0x000000008083ede8       0x2e lib/built-in.o
                0x000000008083ede8                strlcpy
 .text.memmove  0x000000008083ee16       0x32 lib/built-in.o
                0x000000008083ee16                memmove
 .text.memcmp   0x000000008083ee48       0x1e lib/built-in.o
                0x000000008083ee48                memcmp
 .text.strstr   0x000000008083ee66       0x48 lib/built-in.o
                0x000000008083ee66                strstr
 .text.memchr   0x000000008083eeae       0x1c lib/built-in.o
                0x000000008083eeae                memchr
 .text.tick_to_time
                0x000000008083eeca       0x48 lib/built-in.o
 .text.timer_get_us
                0x000000008083ef12       0x1c lib/built-in.o
                0x000000008083ef12                timer_get_us
 *fill*         0x000000008083ef2e        0x2 
 .text.udelay   0x000000008083ef30       0x24 lib/built-in.o
                0x000000008083ef30                udelay
 .text.mdelay   0x000000008083ef54       0x14 lib/built-in.o
                0x000000008083ef54                mdelay
 .text.uuid_str_valid
                0x000000008083ef68       0x50 lib/built-in.o
                0x000000008083ef68                uuid_str_valid
 .text.uuid_str_to_bin
                0x000000008083efb8      0x118 lib/built-in.o
                0x000000008083efb8                uuid_str_to_bin
 .text.uuid_bin_to_str
                0x000000008083f0d0       0x78 lib/built-in.o
                0x000000008083f0d0                uuid_bin_to_str
 .text.put_dec_trunc
                0x000000008083f148       0x9a lib/built-in.o
 *fill*         0x000000008083f1e2        0x2 
 .text.string   0x000000008083f1e4       0x78 lib/built-in.o
 .text.put_dec  0x000000008083f25c       0xf0 lib/built-in.o
 .text.number   0x000000008083f34c      0x1e8 lib/built-in.o
 .text.vsnprintf_internal
                0x000000008083f534      0x464 lib/built-in.o
 .text.vscnprintf
                0x000000008083f998       0x16 lib/built-in.o
                0x000000008083f998                vscnprintf
 .text.snprintf
                0x000000008083f9ae       0x1a lib/built-in.o
                0x000000008083f9ae                snprintf
 .text.vsprintf
                0x000000008083f9c8        0xc lib/built-in.o
                0x000000008083f9c8                vsprintf
 .text.sprintf  0x000000008083f9d4       0x1a lib/built-in.o
                0x000000008083f9d4                sprintf
 .text.printf   0x000000008083f9ee       0x30 lib/built-in.o
                0x000000008083f9ee                printf
 .text.vprintf  0x000000008083fa1e       0x24 lib/built-in.o
                0x000000008083fa1e                vprintf
 *fill*         0x000000008083fa42        0x2 
 .text.simple_itoa
                0x000000008083fa44       0x38 lib/built-in.o
                0x000000008083fa44                simple_itoa
 .text.panic_finish
                0x000000008083fa7c       0x20 lib/built-in.o
 .text.panic_str
                0x000000008083fa9c        0xa lib/built-in.o
                0x000000008083fa9c                panic_str
 .text.panic    0x000000008083faa6       0x14 lib/built-in.o
                0x000000008083faa6                panic
 *fill*         0x000000008083faba        0x2 
 .text.simple_strtoul
                0x000000008083fabc       0x70 lib/built-in.o
                0x000000008083fabc                simple_strtoul
 .text.strict_strtoul
                0x000000008083fb2c       0x42 lib/built-in.o
                0x000000008083fb2c                strict_strtoul
 .text.simple_strtol
                0x000000008083fb6e       0x1a lib/built-in.o
                0x000000008083fb6e                simple_strtol
 .text.ustrtoul
                0x000000008083fb88       0x3c lib/built-in.o
                0x000000008083fb88                ustrtoul
 .text.simple_strtoull
                0x000000008083fbc4       0x9c lib/built-in.o
                0x000000008083fbc4                simple_strtoull
 .text.ustrtoull
                0x000000008083fc60       0x4e lib/built-in.o
                0x000000008083fc60                ustrtoull
 *fill*         0x000000008083fcae        0x2 
 .text.trailing_strtoln
                0x000000008083fcb0       0x38 lib/built-in.o
                0x000000008083fcb0                trailing_strtoln
 .text.trailing_strtol
                0x000000008083fce8        0x6 lib/built-in.o
                0x000000008083fce8                trailing_strtol
 .text.compute_ip_checksum
                0x000000008083fcee       0x46 net/built-in.o
                0x000000008083fcee                compute_ip_checksum
 .text.ip_checksum_ok
                0x000000008083fd34       0x14 net/built-in.o
                0x000000008083fd34                ip_checksum_ok
 .text.arp_init
                0x000000008083fd48       0x38 net/built-in.o
                0x000000008083fd48                arp_init
 .text.arp_raw_request
                0x000000008083fd80       0x90 net/built-in.o
                0x000000008083fd80                arp_raw_request
 .text.arp_request
                0x000000008083fe10       0x58 net/built-in.o
                0x000000008083fe10                arp_request
 .text.arp_timeout_check
                0x000000008083fe68       0x58 net/built-in.o
                0x000000008083fe68                arp_timeout_check
 .text.arp_receive
                0x000000008083fec0      0x15c net/built-in.o
                0x000000008083fec0                arp_receive
 .text.dhcp_extended
                0x000000008084001c      0x158 net/built-in.o
 .text.dhcp_process_options
                0x0000000080840174      0x15c net/built-in.o
 .text.dhcp_packet_process_options
                0x00000000808402d0       0x5c net/built-in.o
 .text.dhcp_handler
                0x000000008084032c      0x298 net/built-in.o
 .text.bootp_reset
                0x00000000808405c4       0x2c net/built-in.o
                0x00000000808405c4                bootp_reset
 .text.bootp_request
                0x00000000808405f0      0x1dc net/built-in.o
                0x00000000808405f0                bootp_request
 .text.bootp_timeout_handler
                0x00000000808407cc       0x58 net/built-in.o
 .text.dhcp_request
                0x0000000080840824        0x4 net/built-in.o
                0x0000000080840824                dhcp_request
 .text.__def_eth_init
                0x0000000080840828        0x6 net/built-in.o
                0x0000000080840828                cpu_eth_init
 *fill*         0x000000008084082e        0x2 
 .text.on_ethaddr
                0x0000000080840830       0x58 net/built-in.o
 .text.eth_set_current_to_next
                0x0000000080840888       0x10 net/built-in.o
                0x0000000080840888                eth_set_current_to_next
 .text.eth_set_dev
                0x0000000080840898        0xc net/built-in.o
                0x0000000080840898                eth_set_dev
 .text.eth_get_dev_by_name
                0x00000000808408a4       0x50 net/built-in.o
                0x00000000808408a4                eth_get_dev_by_name
 .text.eth_get_dev_by_index
                0x00000000808408f4       0x20 net/built-in.o
                0x00000000808408f4                eth_get_dev_by_index
 .text.eth_get_dev_index
                0x0000000080840914       0x14 net/built-in.o
                0x0000000080840914                eth_get_dev_index
 .text.eth_write_hwaddr
                0x0000000080840928      0x138 net/built-in.o
                0x0000000080840928                eth_write_hwaddr
 .text.eth_register
                0x0000000080840a60       0x48 net/built-in.o
                0x0000000080840a60                eth_register
 .text.eth_unregister
                0x0000000080840aa8       0x54 net/built-in.o
                0x0000000080840aa8                eth_unregister
 .text.eth_initialize
                0x0000000080840afc      0x110 net/built-in.o
                0x0000000080840afc                eth_initialize
 .text.eth_init
                0x0000000080840c0c       0x48 net/built-in.o
                0x0000000080840c0c                eth_init
 .text.eth_halt
                0x0000000080840c54       0x18 net/built-in.o
                0x0000000080840c54                eth_halt
 .text.eth_send
                0x0000000080840c6c       0x24 net/built-in.o
                0x0000000080840c6c                eth_send
 .text.eth_rx   0x0000000080840c90       0x14 net/built-in.o
                0x0000000080840c90                eth_rx
 .text.eth_parse_enetaddr
                0x0000000080840ca4       0x30 net/built-in.o
                0x0000000080840ca4                eth_parse_enetaddr
 .text.eth_getenv_enetaddr
                0x0000000080840cd4       0x34 net/built-in.o
                0x0000000080840cd4                eth_getenv_enetaddr
 .text.eth_setenv_enetaddr
                0x0000000080840d08       0x20 net/built-in.o
                0x0000000080840d08                eth_setenv_enetaddr
 .text.eth_getenv_enetaddr_by_index
                0x0000000080840d28       0x30 net/built-in.o
                0x0000000080840d28                eth_getenv_enetaddr_by_index
 .text.eth_setenv_enetaddr_by_index
                0x0000000080840d58       0x30 net/built-in.o
                0x0000000080840d58                eth_setenv_enetaddr_by_index
 .text.eth_common_init
                0x0000000080840d88       0x14 net/built-in.o
                0x0000000080840d88                eth_common_init
 .text.eth_mac_skip
                0x0000000080840d9c       0x30 net/built-in.o
                0x0000000080840d9c                eth_mac_skip
 .text.eth_get_name
                0x0000000080840dcc       0x18 net/built-in.o
                0x0000000080840dcc                eth_get_name
 .text.eth_current_changed
                0x0000000080840de4       0x60 net/built-in.o
                0x0000000080840de4                eth_current_changed
 .text.eth_try_another
                0x0000000080840e44       0x54 net/built-in.o
                0x0000000080840e44                eth_try_another
 .text.eth_set_current
                0x0000000080840e98       0x58 net/built-in.o
                0x0000000080840e98                eth_set_current
 .text.net_clear_handlers
                0x0000000080840ef0       0x24 net/built-in.o
 .text.start_again_timeout_handler
                0x0000000080840f14        0xc net/built-in.o
 .text.dummy_handler
                0x0000000080840f20        0x2 net/built-in.o
 *fill*         0x0000000080840f22        0x2 
 .text.on_ipaddr
                0x0000000080840f24       0x18 net/built-in.o
 .text.on_gatewayip
                0x0000000080840f3c       0x18 net/built-in.o
 .text.on_netmask
                0x0000000080840f54       0x18 net/built-in.o
 .text.on_serverip
                0x0000000080840f6c       0x18 net/built-in.o
 .text.net_init_loop
                0x0000000080840f84       0x1c net/built-in.o
 .text.net_auto_load
                0x0000000080840fa0       0x40 net/built-in.o
                0x0000000080840fa0                net_auto_load
 .text.net_init
                0x0000000080840fe0       0x50 net/built-in.o
                0x0000000080840fe0                net_init
 .text.net_start_again
                0x0000000080841030       0xec net/built-in.o
                0x0000000080841030                net_start_again
 .text.net_loop
                0x000000008084111c      0x268 net/built-in.o
                0x000000008084111c                net_loop
 .text.net_set_udp_handler
                0x0000000080841384       0x18 net/built-in.o
                0x0000000080841384                net_set_udp_handler
 .text.net_get_arp_handler
                0x000000008084139c        0xc net/built-in.o
                0x000000008084139c                net_get_arp_handler
 .text.net_set_timeout_handler
                0x00000000808413a8       0x3c net/built-in.o
                0x00000000808413a8                net_set_timeout_handler
 .text.net_process_received_packet
                0x00000000808413e4      0x1bc net/built-in.o
                0x00000000808413e4                net_process_received_packet
 .text.net_eth_hdr_size
                0x00000000808415a0       0x2c net/built-in.o
                0x00000000808415a0                net_eth_hdr_size
 .text.net_set_ether
                0x00000000808415cc       0x64 net/built-in.o
                0x00000000808415cc                net_set_ether
 .text.net_update_ether
                0x0000000080841630       0x50 net/built-in.o
                0x0000000080841630                net_update_ether
 .text.net_set_ip_header
                0x0000000080841680       0x58 net/built-in.o
                0x0000000080841680                net_set_ip_header
 .text.net_set_udp_header
                0x00000000808416d8       0x4c net/built-in.o
                0x00000000808416d8                net_set_udp_header
 .text.net_send_udp_packet
                0x0000000080841724       0xb4 net/built-in.o
                0x0000000080841724                net_send_udp_packet
 .text.copy_filename
                0x00000000808417d8       0x2c net/built-in.o
                0x00000000808417d8                copy_filename
 .text.on_bootfile
                0x0000000080841804       0x20 net/built-in.o
 .text.ip_to_string
                0x0000000080841824       0x28 net/built-in.o
                0x0000000080841824                ip_to_string
 .text.string_to_vlan
                0x000000008084184c       0x28 net/built-in.o
                0x000000008084184c                string_to_vlan
 .text.on_nvlan
                0x0000000080841874       0x18 net/built-in.o
 .text.on_vlan  0x000000008084188c       0x18 net/built-in.o
 .text.rpc_lookup_reply
                0x00000000808418a4       0x68 net/built-in.o
 .text.nfs_mount_reply
                0x000000008084190c       0x60 net/built-in.o
 .text.nfs_umountall_reply
                0x000000008084196c       0x58 net/built-in.o
 .text.nfs_lookup_reply
                0x00000000808419c4       0x54 net/built-in.o
 .text.nfs_readlink_reply
                0x0000000080841a18       0x90 net/built-in.o
 .text.basename
                0x0000000080841aa8       0x20 net/built-in.o
 .text.rpc_add_credentials
                0x0000000080841ac8       0x80 net/built-in.o
 .text.rpc_req  0x0000000080841b48       0xa8 net/built-in.o
 .text.nfs_mount_req
                0x0000000080841bf0       0x6c net/built-in.o
 .text.nfs_umountall_req
                0x0000000080841c5c       0x3c net/built-in.o
 .text.nfs_lookup_req
                0x0000000080841c98       0x78 net/built-in.o
 .text.nfs_read_req
                0x0000000080841d10       0x4c net/built-in.o
 .text.nfs_readlink_req
                0x0000000080841d5c       0x3c net/built-in.o
 .text.nfs_read_reply.isra.0
                0x0000000080841d98       0xbc net/built-in.o
 .text.nfs_send
                0x0000000080841e54       0xac net/built-in.o
 .text.nfs_handler
                0x0000000080841f00      0x168 net/built-in.o
 .text.nfs_timeout_handler
                0x0000000080842068       0x4c net/built-in.o
 .text.nfs_start
                0x00000000808420b4      0x19c net/built-in.o
                0x00000000808420b4                nfs_start
 .text.ping_timeout_handler
                0x0000000080842250       0x14 net/built-in.o
 .text.ping_start
                0x0000000080842264       0xc4 net/built-in.o
                0x0000000080842264                ping_start
 .text.ping_receive
                0x0000000080842328       0x94 net/built-in.o
                0x0000000080842328                ping_receive
 .text.tftp_send
                0x00000000808423bc      0x12c net/built-in.o
 .text.tftp_handler
                0x00000000808424e8      0x270 net/built-in.o
 .text.tftp_timeout_handler
                0x0000000080842758       0x64 net/built-in.o
 .text.tftp_start
                0x00000000808427bc      0x268 net/built-in.o
                0x00000000808427bc                tftp_start
 .text.do_dm_dump_devres
                0x0000000080842a24        0x4 test/dm/built-in.o
 .text.do_dm    0x0000000080842a28       0x44 test/dm/built-in.o
 .text.do_dm_dump_uclass
                0x0000000080842a6c        0xa test/dm/built-in.o
 .text.do_dm_dump_all
                0x0000000080842a76        0xa test/dm/built-in.o
 .text.raise    0x0000000080842a80       0x14 arch/arm/lib/eabi_compat.o
                0x0000000080842a80                raise
 *fill*         0x0000000080842a94        0x4 
 .text          0x0000000080842a98      0x278 /home/chen_7109/am335x/gcc-linaro-5.3-2016.02-x86_64_arm-linux-gnueabihf/bin/../lib/gcc/arm-linux-gnueabihf/5.3.1/libgcc.a(_udivsi3.o)
                0x0000000080842a98                __udivsi3
                0x0000000080842a98                __aeabi_uidiv
                0x0000000080842cf4                __aeabi_uidivmod
 .text          0x0000000080842d10      0x2b0 /home/chen_7109/am335x/gcc-linaro-5.3-2016.02-x86_64_arm-linux-gnueabihf/bin/../lib/gcc/arm-linux-gnueabihf/5.3.1/libgcc.a(_divsi3.o)
                0x0000000080842d10                __aeabi_idiv
                0x0000000080842d10                __divsi3
                0x0000000080842fa4                __aeabi_idivmod
 .text          0x0000000080842fc0       0x18 /home/chen_7109/am335x/gcc-linaro-5.3-2016.02-x86_64_arm-linux-gnueabihf/bin/../lib/gcc/arm-linux-gnueabihf/5.3.1/libgcc.a(_lshrdi3.o)
                0x0000000080842fc0                __aeabi_llsr
                0x0000000080842fc0                __lshrdi3
 .text          0x0000000080842fd8       0x18 /home/chen_7109/am335x/gcc-linaro-5.3-2016.02-x86_64_arm-linux-gnueabihf/bin/../lib/gcc/arm-linux-gnueabihf/5.3.1/libgcc.a(_ashldi3.o)
                0x0000000080842fd8                __ashldi3
                0x0000000080842fd8                __aeabi_llsl
 .text          0x0000000080842ff0        0xc /home/chen_7109/am335x/gcc-linaro-5.3-2016.02-x86_64_arm-linux-gnueabihf/bin/../lib/gcc/arm-linux-gnueabihf/5.3.1/libgcc.a(_dvmd_lnx.o)
                0x0000000080842ff0                __aeabi_ldiv0
                0x0000000080842ff0                __aeabi_idiv0

.glue_7         0x0000000080842ffc        0x0
 .glue_7        0x0000000080842ffc        0x0 linker stubs

.glue_7t        0x0000000080842ffc        0x0
 .glue_7t       0x0000000080842ffc        0x0 linker stubs

.vfp11_veneer   0x0000000080842ffc        0x0
 .vfp11_veneer  0x0000000080842ffc        0x0 linker stubs

.v4_bx          0x0000000080842ffc        0x0
 .v4_bx         0x0000000080842ffc        0x0 linker stubs

.iplt           0x0000000080842ffc        0x0
 .iplt          0x0000000080842ffc        0x0 arch/arm/cpu/armv7/start.o

efi_runtime_text
                0x0000000080842ffc       0x18
                0x0000000080842ffc                PROVIDE (__start_efi_runtime_text, .)
 efi_runtime_text
                0x0000000080842ffc       0x18 lib/built-in.o
                0x0000000080843014                PROVIDE (__stop_efi_runtime_text, .)
                0x0000000080843014                . = ALIGN (0x4)

.rodata         0x0000000080843018    0x12e99
 *(SORT(.rodata*))
 .rodata.efi_boot_services
                0x0000000080843018       0xc8 lib/built-in.o
 .rodata        0x00000000808430e0       0x80 arch/arm/lib/built-in.o
 .rodata.CSWTCH.19
                0x0000000080843160       0x1c drivers/usb/musb-new/built-in.o
 .rodata.CSWTCH.28
                0x000000008084317c       0x20 common/built-in.o
 .rodata.CSWTCH.31
                0x000000008084319c       0x14 cmd/built-in.o
 .rodata.CSWTCH.98
                0x00000000808431b0       0x54 common/built-in.o
 .rodata.am33xx_gpio
                0x0000000080843204       0x30 arch/arm/cpu/armv7/built-in.o
 .rodata.am33xx_serial
                0x0000000080843234       0x60 arch/arm/cpu/armv7/built-in.o
 .rodata.block_drvr
                0x0000000080843294       0x24 disk/built-in.o
                0x0000000080843294                block_drvr
 .rodata.boot_os
                0x00000000808432b8       0x60 common/built-in.o
 .rodata.bus_widths.9620
                0x0000000080843318        0x8 drivers/mmc/built-in.o
 .rodata.cpu_revs
                0x0000000080843320        0xc arch/arm/cpu/armv7/built-in.o
 .rodata.crc32table_le
                0x000000008084332c      0x400 drivers/mtd/ubi/built-in.o
 .rodata.crc_table
                0x000000008084372c      0x400 lib/built-in.o
 .rodata.desc_and_len_tbl
                0x0000000080843b2c       0x30 cmd/built-in.o
 .rodata.dev_types
                0x0000000080843b5c       0x10 arch/arm/cpu/armv7/built-in.o
 .rodata.efi_con_in
                0x0000000080843b6c        0xc lib/built-in.o
                0x0000000080843b6c                efi_con_in
 .rodata.efi_con_out
                0x0000000080843b78       0x28 lib/built-in.o
                0x0000000080843b78                efi_con_out
 .rodata.efi_console_control
                0x0000000080843ba0        0xc lib/built-in.o
                0x0000000080843ba0                efi_console_control
 .rodata.env_flags_varaccess_mask
                0x0000000080843bac       0x10 common/built-in.o
 .rodata.ext_csd_bits.9619
                0x0000000080843bbc        0x8 drivers/mmc/built-in.o
 .rodata.fbase  0x0000000080843bc4       0x10 drivers/mmc/built-in.o
 .rodata.fdt_errtable
                0x0000000080843bd4       0x34 lib/built-in.o
 .rodata.gpio_function
                0x0000000080843c08       0x14 drivers/gpio/built-in.o
 .rodata.gpio_omap_ops
                0x0000000080843c1c       0x20 drivers/gpio/built-in.o
 .rodata.keywords
                0x0000000080843c3c       0x98 cmd/built-in.o
 .rodata.mod_exp_ops_sw
                0x0000000080843cd4        0x4 drivers/built-in.o
 .rodata.mon_lengths.8840
                0x0000000080843cd8       0x60 fs/built-in.o
 .rodata.multipliers
                0x0000000080843d38       0x40 drivers/mmc/built-in.o
 .rodata.musb_ep_ops
                0x0000000080843d78       0x28 drivers/usb/musb-new/built-in.o
 .rodata.musb_g_ep0_ops
                0x0000000080843da0       0x28 drivers/usb/musb-new/built-in.o
                0x0000000080843da0                musb_g_ep0_ops
 .rodata.musb_gadget_operations
                0x0000000080843dc8       0x24 drivers/usb/musb-new/built-in.o
 .rodata.ns16550_serial_ops
                0x0000000080843dec       0x14 drivers/serial/built-in.o
                0x0000000080843dec                ns16550_serial_ops
 .rodata.oid_supported_list
                0x0000000080843e00       0x70 drivers/usb/gadget/built-in.o
 .rodata.omap_gpio_ids
                0x0000000080843e70       0x20 drivers/gpio/built-in.o
 .rodata.omap_hsmmc_ops
                0x0000000080843e90       0x18 drivers/mmc/built-in.o
 .rodata.op_adv
                0x0000000080843ea8      0x100 cmd/built-in.o
                0x0000000080843ea8                op_adv
 .rodata.op_table
                0x0000000080843fa8       0x68 cmd/built-in.o
 .rodata.reg_0_5_desc_tbl
                0x0000000080844010       0x30 cmd/built-in.o
 .rodata.reg_0_desc_tbl
                0x0000000080844040       0x78 cmd/built-in.o
 .rodata.reg_1_desc_tbl
                0x00000000808440b8       0xc0 cmd/built-in.o
 .rodata.reg_2_desc_tbl
                0x0000000080844178        0xc cmd/built-in.o
 .rodata.reg_3_desc_tbl
                0x0000000080844184       0x24 cmd/built-in.o
 .rodata.reg_4_desc_tbl
                0x00000000808441a8       0x90 cmd/built-in.o
 .rodata.reg_5_desc_tbl
                0x0000000080844238       0x90 cmd/built-in.o
 .rodata.root_info
                0x00000000808442c8        0x8 drivers/built-in.o
 .rodata.subcmd_list
                0x00000000808442d0       0x10 cmd/built-in.o
 .rodata.ubifs_super_operations
                0x00000000808442e0       0x3c fs/built-in.o
                0x00000000808442e0                ubifs_super_operations
 .rodata.uimage_arch
                0x000000008084431c      0x12c common/built-in.o
 .rodata.uimage_comp
                0x0000000080844448       0x54 common/built-in.o
 .rodata.uimage_os
                0x000000008084449c       0x78 common/built-in.o
 .rodata.uimage_type
                0x0000000080844514      0x144 common/built-in.o
 .rodata.year_lengths.8841
                0x0000000080844658        0x8 fs/built-in.o
 .rodata.crc16_tab
                0x0000000080844660      0x200 lib/built-in.o
 .rodata.crc16_table
                0x0000000080844860      0x400 fs/built-in.o
                0x0000000080844a60                crc16_table
 .rodata.dbase.8288
                0x0000000080844c60       0x40 lib/built-in.o
 .rodata.dext.8289
                0x0000000080844ca0       0x40 lib/built-in.o
 .rodata.distfix
                0x0000000080844ce0       0x80 lib/built-in.o
 .rodata.lbase.8286
                0x0000000080844d60       0x3e lib/built-in.o
 .rodata.lenfix
                0x0000000080844d9e      0x800 lib/built-in.o
 .rodata.lext.8287
                0x000000008084559e       0x3e lib/built-in.o
 .rodata.order.8382
                0x00000000808455dc       0x26 lib/built-in.o
 .rodata        0x0000000080845602       0x10 cmd/built-in.o
 .rodata        0x0000000080845612        0x3 common/built-in.o
 .rodata        0x0000000080845615       0x10 disk/built-in.o
 .rodata        0x0000000080845625       0x20 lib/built-in.o
 .rodata        0x0000000080845645        0x7 net/built-in.o
 .rodata.CSWTCH.66
                0x000000008084564c       0x16 common/built-in.o
 .rodata.__FUNCTION__.10923
                0x0000000080845662       0x12 drivers/usb/musb-new/built-in.o
 .rodata.__FUNCTION__.8465
                0x0000000080845674       0x14 net/built-in.o
 .rodata.__FUNCTION__.8908
                0x0000000080845688       0x17 common/built-in.o
 .rodata.__FUNCTION__.9633
                0x000000008084569f       0x10 drivers/mtd/ubi/built-in.o
 .rodata.__FUNCTION__.9704
                0x00000000808456af       0x13 drivers/mtd/built-in.o
 .rodata.__func__.10306
                0x00000000808456c2       0x10 drivers/mmc/built-in.o
 .rodata.__func__.10344
                0x00000000808456d2       0x16 drivers/mmc/built-in.o
 .rodata.__func__.10406
                0x00000000808456e8       0x19 drivers/mmc/built-in.o
 .rodata.__func__.10421
                0x0000000080845701       0x14 drivers/mmc/built-in.o
 .rodata.__func__.10469
                0x0000000080845715        0xe drivers/mmc/built-in.o
 .rodata.__func__.10504
                0x0000000080845723        0xf drivers/mmc/built-in.o
 .rodata.__func__.10559
                0x0000000080845732       0x15 drivers/mmc/built-in.o
 .rodata.__func__.10572
                0x0000000080845747       0x17 drivers/usb/gadget/built-in.o
 .rodata.__func__.10630
                0x000000008084575e        0xa drivers/usb/gadget/built-in.o
 .rodata.__func__.10653
                0x0000000080845768        0xf drivers/usb/gadget/built-in.o
 .rodata.__func__.10739
                0x0000000080845777        0x9 drivers/usb/gadget/built-in.o
 .rodata.__func__.10751
                0x0000000080845780        0xe drivers/usb/gadget/built-in.o
 .rodata.__func__.10767
                0x000000008084578e        0xe drivers/usb/gadget/built-in.o
 .rodata.__func__.10796
                0x000000008084579c        0xd drivers/usb/gadget/built-in.o
 .rodata.__func__.10912
                0x00000000808457a9        0xf drivers/usb/musb-new/built-in.o
 .rodata.__func__.10953
                0x00000000808457b8       0x10 drivers/usb/musb-new/built-in.o
 .rodata.__func__.10976
                0x00000000808457c8       0x14 drivers/usb/musb-new/built-in.o
 .rodata.__func__.10990
                0x00000000808457dc        0xf drivers/usb/musb-new/built-in.o
 .rodata.__func__.11027
                0x00000000808457eb        0xf drivers/usb/musb-new/built-in.o
 .rodata.__func__.11038
                0x00000000808457fa        0xd drivers/usb/musb-new/built-in.o
 .rodata.__func__.11197
                0x0000000080845807        0x8 fs/built-in.o
 .rodata.__func__.11227
                0x000000008084580f        0xe fs/built-in.o
 .rodata.__func__.11270
                0x000000008084581d        0x9 fs/built-in.o
 .rodata.__func__.11286
                0x0000000080845826        0xb fs/built-in.o
 .rodata.__func__.11321
                0x0000000080845831        0xc fs/built-in.o
 .rodata.__func__.11342
                0x000000008084583d        0xb fs/built-in.o
 .rodata.__func__.8087
                0x0000000080845848        0xe common/built-in.o
 .rodata.__func__.8094
                0x0000000080845856       0x16 arch/arm/cpu/armv7/built-in.o
 .rodata.__func__.8100
                0x000000008084586c        0xf disk/built-in.o
 .rodata.__func__.8112
                0x000000008084587b       0x12 disk/built-in.o
 .rodata.__func__.8122
                0x000000008084588d       0x10 common/built-in.o
 .rodata.__func__.8133
                0x000000008084589d       0x13 disk/built-in.o
 .rodata.__func__.8183
                0x00000000808458b0        0xc disk/built-in.o
 .rodata.__func__.8201
                0x00000000808458bc       0x13 disk/built-in.o
 .rodata.__func__.8208
                0x00000000808458cf        0x7 cmd/built-in.o
 .rodata.__func__.8214
                0x00000000808458d6       0x16 disk/built-in.o
 .rodata.__func__.8251
                0x00000000808458ec        0xd disk/built-in.o
 .rodata.__func__.8260
                0x00000000808458f9       0x17 disk/built-in.o
 .rodata.__func__.8265
                0x0000000080845910        0xd disk/built-in.o
 .rodata.__func__.8311
                0x000000008084591d        0xf fs/built-in.o
 .rodata.__func__.8344
                0x000000008084592c       0x13 fs/built-in.o
 .rodata.__func__.8353
                0x000000008084593f       0x14 fs/built-in.o
 .rodata.__func__.8516
                0x0000000080845953        0xe cmd/built-in.o
 .rodata.__func__.8553
                0x0000000080845961        0xe cmd/built-in.o
 .rodata.__func__.8562
                0x000000008084596f        0xc lib/built-in.o
 .rodata.__func__.8691
                0x000000008084597b       0x1c fs/built-in.o
 .rodata.__func__.8785
                0x0000000080845997       0x18 common/built-in.o
 .rodata.__func__.9195
                0x00000000808459af        0xe drivers/built-in.o
 .rodata.__func__.9424
                0x00000000808459bd        0xd drivers/built-in.o
 .rodata.__func__.9430
                0x00000000808459ca       0x11 drivers/built-in.o
 .rodata.__func__.9442
                0x00000000808459db        0xd drivers/built-in.o
 .rodata.__func__.9446
                0x00000000808459e8       0x14 drivers/built-in.o
 .rodata._ctype
                0x00000000808459fc      0x100 lib/built-in.o
                0x00000000808459fc                _ctype
 .rodata.acm_descriptor
                0x0000000080845afc        0x4 drivers/usb/gadget/built-in.o
 .rodata.call_mgmt_descriptor
                0x0000000080845b00        0x5 drivers/usb/gadget/built-in.o
 .rodata.day_name.8834
                0x0000000080845b05       0x15 fs/built-in.o
 .rodata.default_environment
                0x0000000080845b1a      0xa4b common/built-in.o
                0x0000000080845b1a                default_environment
 .rodata.digits.7938
                0x0000000080846565       0x10 lib/built-in.o
 .rodata.driver_desc
                0x0000000080846575       0x10 drivers/usb/gadget/built-in.o
 .rodata.efi_block_io_guid
                0x0000000080846585       0x10 lib/built-in.o
 .rodata.efi_guid_console_control
                0x0000000080846595       0x10 lib/built-in.o
                0x0000000080846595                efi_guid_console_control
 .rodata.efi_guid_device_path
                0x00000000808465a5       0x10 lib/built-in.o
                0x00000000808465a5                efi_guid_device_path
 .rodata.efi_guid_loaded_image
                0x00000000808465b5       0x10 lib/built-in.o
                0x00000000808465b5                efi_guid_loaded_image
 .rodata.env_flags_varaccess_rep
                0x00000000808465c5        0x5 common/built-in.o
 .rodata.env_flags_vartype_rep
                0x00000000808465ca        0x7 common/built-in.o
 .rodata.erase_seq
                0x00000000808465d1        0x4 common/built-in.o
 .rodata.header_desc
                0x00000000808465d5        0x5 drivers/usb/gadget/built-in.o
 .rodata.hex_asc
                0x00000000808465da       0x11 lib/built-in.o
 .rodata.lzop_magic
                0x00000000808465eb        0x9 lib/built-in.o
 .rodata.mon_name.8835
                0x00000000808465f4       0x24 fs/built-in.o
 .rodata.musb_driver_name
                0x0000000080846618        0xa drivers/usb/musb-new/built-in.o
                0x0000000080846618                musb_driver_name
 .rodata.musb_test_packet
                0x0000000080846622       0x35 drivers/usb/musb-new/built-in.o
 .rodata.names.8091
                0x0000000080846657        0x6 lib/built-in.o
 .rodata.net_bcast_ethaddr
                0x000000008084665d        0x6 net/built-in.o
                0x000000008084665d                net_bcast_ethaddr
 .rodata.patterns
                0x0000000080846663        0x3 drivers/mtd/ubi/built-in.o
 .rodata.rndis_control_intf
                0x0000000080846666        0x9 drivers/usb/gadget/built-in.o
 .rodata.rndis_data_intf
                0x000000008084666f        0x9 drivers/usb/gadget/built-in.o
 .rodata.sha1_padding
                0x0000000080846678       0x40 lib/built-in.o
 .rodata.str1.1
                0x00000000808466b8      0x1e3 board/vscom/baltos/built-in.o
                                        0x1f7 (size before relaxing)
 .rodata.str1.1
                0x000000008084689b      0x1c1 arch/arm/cpu/armv7/built-in.o
                                        0x1c3 (size before relaxing)
 .rodata.str1.1
                0x0000000080846a5c      0x380 arch/arm/lib/built-in.o
                                        0x3c7 (size before relaxing)
 .rodata.str1.1
                0x0000000080846ddc     0x74a5 cmd/built-in.o
                                       0x7c30 (size before relaxing)
 .rodata.str1.1
                0x000000008084e281     0x2c4e common/built-in.o
                                       0x30e9 (size before relaxing)
 .rodata.str1.1
                0x0000000080850ecf      0xb62 disk/built-in.o
                                        0xc0b (size before relaxing)
 .rodata.str1.1
                0x0000000080851a31      0x313 drivers/built-in.o
                                        0x353 (size before relaxing)
 .rodata.str1.1
                0x0000000080851d44       0xc0 drivers/gpio/built-in.o
                                         0xe7 (size before relaxing)
 .rodata.str1.1
                0x0000000080851e04      0x4f4 drivers/i2c/built-in.o
 .rodata.str1.1
                0x00000000808522f8      0x4f2 drivers/mmc/built-in.o
                                        0x549 (size before relaxing)
 .rodata.str1.1
                0x00000000808527ea      0x289 drivers/mtd/built-in.o
                                        0x2c1 (size before relaxing)
 .rodata.str1.1
                0x0000000080852a73      0x900 drivers/mtd/ubi/built-in.o
                                        0x93a (size before relaxing)
 .rodata.str1.1
                0x0000000080853373      0x1b5 drivers/net/built-in.o
                                        0x1bf (size before relaxing)
 .rodata.str1.1
                0x0000000080853528      0x19c drivers/net/phy/built-in.o
                                        0x1b2 (size before relaxing)
 .rodata.str1.1
                0x00000000808536c4       0x59 drivers/serial/built-in.o
                                         0xaa (size before relaxing)
 .rodata.str1.1
                0x000000008085371d      0x466 drivers/usb/gadget/built-in.o
                                        0x4b4 (size before relaxing)
 .rodata.str1.1
                0x0000000080853b83      0x368 drivers/usb/musb-new/built-in.o
                                        0x3a5 (size before relaxing)
 .rodata.str1.1
                0x0000000080853eeb      0xed5 fs/built-in.o
                                        0xfd8 (size before relaxing)
 .rodata.str1.1
                0x0000000080854dc0      0x7c0 lib/built-in.o
                                        0x84e (size before relaxing)
 .rodata.str1.1
                0x0000000080855580      0x7d5 net/built-in.o
                                        0x962 (size before relaxing)
 .rodata.str1.1
                0x0000000080855d55       0xdc test/dm/built-in.o
                                         0xe2 (size before relaxing)
 .rodata.str1.1
                0x0000000080855e31       0x1b arch/arm/lib/eabi_compat.o
 .rodata.tab_seq
                0x0000000080855e4c        0x9 common/built-in.o
 .rodata.union_desc
                0x0000000080855e55        0x5 drivers/usb/gadget/built-in.o
 .rodata.us_direction
                0x0000000080855e5a       0x20 common/built-in.o
 .rodata.version_string
                0x0000000080855e7a       0x37 cmd/built-in.o
                0x0000000080855e7a                version_string
                0x0000000080855eb4                . = ALIGN (0x4)

.data           0x0000000080855eb8     0x30e0
 *(.data*)
 .data.cpsw_slaves
                0x0000000080855eb8       0x28 board/vscom/baltos/built-in.o
 .data.cpsw_data
                0x0000000080855ee0       0x4c board/vscom/baltos/built-in.o
 .data.cstat    0x0000000080855f2c        0x4 arch/arm/cpu/armv7/built-in.o
                0x0000000080855f2c                cstat
 .data.musb_config
                0x0000000080855f30       0x18 arch/arm/cpu/armv7/built-in.o
 .data.otg1_board_data
                0x0000000080855f48       0x14 arch/arm/cpu/armv7/built-in.o
                0x0000000080855f48                otg1_board_data
 .data.otg1_plat
                0x0000000080855f5c       0x20 arch/arm/cpu/armv7/built-in.o
 .data.otg0_board_data
                0x0000000080855f7c       0x14 arch/arm/cpu/armv7/built-in.o
                0x0000000080855f7c                otg0_board_data
 .data.otg0_plat
                0x0000000080855f90       0x20 arch/arm/cpu/armv7/built-in.o
 .data.bootm_help_text
                0x0000000080855fb0      0x4ce cmd/built-in.o
 *fill*         0x000000008085647e        0x2 
 .data.cmd_bootm_sub
                0x0000000080856480       0xfc cmd/built-in.o
 .data.bootz_help_text
                0x000000008085657c      0x208 cmd/built-in.o
 .data.source_help_text
                0x0000000080856784       0xac cmd/built-in.o
 .data.bootefi_device_path
                0x0000000080856830       0x88 cmd/built-in.o
 .data.loaded_image_info_obj
                0x00000000808568b8       0x2c cmd/built-in.o
 .data.bootefi_image_path
                0x00000000808568e4       0x88 cmd/built-in.o
 .data.bootefi_help_text
                0x000000008085696c       0xbf cmd/built-in.o
 *fill*         0x0000000080856a2b        0x1 
 .data.bootefi_device_obj
                0x0000000080856a2c       0x2c cmd/built-in.o
 .data.loaded_image_info
                0x0000000080856a58       0x40 cmd/built-in.o
 .data.root.8106
                0x0000000080856a98        0x2 cmd/built-in.o
 .data.tabs.8190
                0x0000000080856a9a       0x21 cmd/built-in.o
 .data.fdt_help_text
                0x0000000080856abb      0x623 cmd/built-in.o
 .data.i2c_help_text
                0x00000000808570de      0x37c cmd/built-in.o
 *fill*         0x000000008085745a        0x2 
 .data.cmd_i2c_sub
                0x000000008085745c      0x16c cmd/built-in.o
 .data.i2c_dp_last_length
                0x00000000808575c8        0x4 cmd/built-in.o
 .data.do_echo  0x00000000808575cc        0x4 cmd/built-in.o
 .data.dp_last_length
                0x00000000808575d0        0x4 cmd/built-in.o
 .data.curr_device
                0x00000000808575d4        0x4 cmd/built-in.o
 .data.cmd_mmc  0x00000000808575d8      0x188 cmd/built-in.o
 .data.mtdparts_help_text
                0x0000000080857760      0x4d3 cmd/built-in.o
 *fill*         0x0000000080857c33        0x1 
 .data.cmd_pxe_sub
                0x0000000080857c34       0x38 cmd/built-in.o
 .data.pxe_default_paths
                0x0000000080857c6c       0x10 cmd/built-in.o
                0x0000000080857c6c                pxe_default_paths
 .data.usb_stor_curr_dev
                0x0000000080857c7c        0x4 cmd/built-in.o
 .data.imgextract_help_text
                0x0000000080857c80       0xb2 cmd/built-in.o
 *fill*         0x0000000080857d32        0x2 
 .data.cmd_spl_export_sub
                0x0000000080857d34       0x38 cmd/built-in.o
 .data.__compound_literal.0
                0x0000000080857d6c       0x20 cmd/built-in.o
 .data.__compound_literal.1
                0x0000000080857d8c       0x1c cmd/built-in.o
 .data.cmd_spl_sub
                0x0000000080857da8       0x1c cmd/built-in.o
 .data.env_help_text
                0x0000000080857dc4      0x270 cmd/built-in.o
 .data.env_id   0x0000000080858034        0x4 cmd/built-in.o
 .data.cmd_env_sub
                0x0000000080858038      0x118 cmd/built-in.o
 .data.hash_algo
                0x0000000080858150       0x54 common/built-in.o
 .data.reserved_list
                0x00000000808581a4       0x84 common/built-in.o
 .data.init_sequence_f
                0x0000000080858228       0xa8 common/built-in.o
 .data.init_sequence_r
                0x00000000808582d0       0x94 common/built-in.o
                0x00000000808582d0                init_sequence_r
 .data.first_call
                0x0000000080858364        0x8 common/built-in.o
 .data.usb_scan_list
                0x000000008085836c        0x8 common/built-in.o
 .data.env_htab
                0x0000000080858374       0x10 common/built-in.o
                0x0000000080858374                env_htab
 .data.av_      0x0000000080858384      0x408 common/built-in.o
 .data.sbrk_base
                0x000000008085878c        0x4 common/built-in.o
 .data.trim_threshold
                0x0000000080858790        0x4 common/built-in.o
 .data.load_addr
                0x0000000080858794        0x4 common/built-in.o
                0x0000000080858794                load_addr
 .data.stdio_names
                0x0000000080858798        0xc common/built-in.o
                0x0000000080858798                stdio_names
 .data.hist_cur
                0x00000000808587a4        0x4 common/built-in.o
 .data.system_guid
                0x00000000808587a8       0x10 disk/built-in.o
 .data.wdt_trgr_pattern
                0x00000000808587b8        0x4 drivers/built-in.o
 .data.cur_dev_num
                0x00000000808587bc        0x4 drivers/mmc/built-in.o
 .data.mtd_partitions
                0x00000000808587c0        0x8 drivers/mtd/built-in.o
 .data.genphy_driver
                0x00000000808587c8       0x34 drivers/net/phy/built-in.o
 .data.phy_drivers
                0x00000000808587fc        0x8 drivers/net/phy/built-in.o
 .data.AR8021_driver
                0x0000000080858804       0x34 drivers/net/phy/built-in.o
 .data.AR8031_driver
                0x0000000080858838       0x34 drivers/net/phy/built-in.o
 .data.AR8035_driver
                0x000000008085886c       0x34 drivers/net/phy/built-in.o
 .data.lan8700_driver
                0x00000000808588a0       0x34 drivers/net/phy/built-in.o
 .data.lan8710_driver
                0x00000000808588d4       0x34 drivers/net/phy/built-in.o
 .data.lan911x_driver
                0x0000000080858908       0x34 drivers/net/phy/built-in.o
 .data.lan8740_driver
                0x000000008085893c       0x34 drivers/net/phy/built-in.o
 .data.device_desc
                0x0000000080858970       0x24 drivers/usb/gadget/built-in.o
 .data.fs_eth_function
                0x0000000080858994       0x2c drivers/usb/gadget/built-in.o
 .data.eth_config
                0x00000000808589c0        0x9 drivers/usb/gadget/built-in.o
 *fill*         0x00000000808589c9        0x3 
 .data.hs_rndis_function
                0x00000000808589cc       0x2c drivers/usb/gadget/built-in.o
 .data.hs_status_desc
                0x00000000808589f8        0x9 drivers/usb/gadget/built-in.o
 *fill*         0x0000000080858a01        0x3 
 .data.l_priv   0x0000000080858a04        0x4 drivers/usb/gadget/built-in.o
                0x0000000080858a04                l_priv
 .data.fs_source_desc
                0x0000000080858a08        0x9 drivers/usb/gadget/built-in.o
 *fill*         0x0000000080858a11        0x3 
 .data.stringtab
                0x0000000080858a14        0x8 drivers/usb/gadget/built-in.o
 .data.fs_rndis_function
                0x0000000080858a1c       0x2c drivers/usb/gadget/built-in.o
 .data.hs_sink_desc
                0x0000000080858a48        0x9 drivers/usb/gadget/built-in.o
 .data.fs_sink_desc
                0x0000000080858a51        0x9 drivers/usb/gadget/built-in.o
 .data.rndis_config
                0x0000000080858a5a        0x9 drivers/usb/gadget/built-in.o
 .data.hs_source_desc
                0x0000000080858a63        0x9 drivers/usb/gadget/built-in.o
 .data.dev_qualifier
                0x0000000080858a6c        0xa drivers/usb/gadget/built-in.o
 *fill*         0x0000000080858a76        0x2 
 .data.hs_eth_function
                0x0000000080858a78       0x2c drivers/usb/gadget/built-in.o
 .data.product_desc
                0x0000000080858aa4       0x28 drivers/usb/gadget/built-in.o
 .data.otg_descriptor
                0x0000000080858acc        0x3 drivers/usb/gadget/built-in.o
 *fill*         0x0000000080858acf        0x1 
 .data.strings  0x0000000080858ad0       0x40 drivers/usb/gadget/built-in.o
 .data.fs_status_desc
                0x0000000080858b10        0x9 drivers/usb/gadget/built-in.o
 *fill*         0x0000000080858b19        0x1 
 .data.mode_3_cfg
                0x0000000080858b1a       0x24 drivers/usb/musb-new/built-in.o
 .data.mode_4_cfg
                0x0000000080858b3e       0xa2 drivers/usb/musb-new/built-in.o
 .data.mode_5_cfg
                0x0000000080858be0       0xa2 drivers/usb/musb-new/built-in.o
 .data.mode_0_cfg
                0x0000000080858c82       0x1e drivers/usb/musb-new/built-in.o
 .data.ep0_cfg  0x0000000080858ca0        0x6 drivers/usb/musb-new/built-in.o
 .data.mode_1_cfg
                0x0000000080858ca6       0x1e drivers/usb/musb-new/built-in.o
 .data.mode_2_cfg
                0x0000000080858cc4       0x24 drivers/usb/musb-new/built-in.o
 .data.fifo_mode
                0x0000000080858ce8        0x2 drivers/usb/musb-new/built-in.o
 *fill*         0x0000000080858cea        0x2 
 .data.musb_dsps_ops
                0x0000000080858cec       0x24 drivers/usb/musb-new/built-in.o
                0x0000000080858cec                musb_dsps_ops
 .data.fstypes  0x0000000080858d10       0xb0 fs/built-in.o
 .data.prev_inode_bitmap_index.8645
                0x0000000080858dc0        0x4 fs/built-in.o
 .data.ext4fs_indir3_blkno
                0x0000000080858dc4        0x4 fs/built-in.o
                0x0000000080858dc4                ext4fs_indir3_blkno
 .data.prev_bg_bitmap_index.8626
                0x0000000080858dc8        0x4 fs/built-in.o
 .data.ext4fs_indir1_blkno
                0x0000000080858dcc        0x4 fs/built-in.o
                0x0000000080858dcc                ext4fs_indir1_blkno
 .data.ext4fs_indir2_blkno
                0x0000000080858dd0        0x4 fs/built-in.o
                0x0000000080858dd0                ext4fs_indir2_blkno
 .data.prev_bg_bmap_idx.8413
                0x0000000080858dd4        0x4 fs/built-in.o
 .data.prev_bg_bmap_idx.8381
                0x0000000080858dd8        0x4 fs/built-in.o
 .data.prev_bg_bmap_idx.8347
                0x0000000080858ddc        0x4 fs/built-in.o
 .data.prev_bg_bmap_idx.8361
                0x0000000080858de0        0x4 fs/built-in.o
 .data.first_node
                0x0000000080858de4        0x4 fs/built-in.o
 .data.lzo_compr
                0x0000000080858de8       0x1c fs/built-in.o
 .data.none_compr
                0x0000000080858e04       0x1c fs/built-in.o
 .data.zlib_compr
                0x0000000080858e20       0x1c fs/built-in.o
 .data.ubifs_fs_type
                0x0000000080858e3c       0x1c fs/built-in.o
 .data.efi_event
                0x0000000080858e58       0x28 lib/built-in.o
 .data.efi_is_direct_boot
                0x0000000080858e80        0x1 lib/built-in.o
 *fill*         0x0000000080858e81        0x3 
 .data.loaded_image_info_obj.8667
                0x0000000080858e84       0x2c lib/built-in.o
 .data.efi_obj_list
                0x0000000080858eb0        0x8 lib/built-in.o
                0x0000000080858eb0                efi_obj_list
 .data.lastoff.9639
                0x0000000080858eb8        0x4 lib/built-in.o
 .data.console_columns
                0x0000000080858ebc        0x4 lib/built-in.o
 .data.console_rows
                0x0000000080858ec0        0x4 lib/built-in.o
 .data.efi_con_mode
                0x0000000080858ec4       0x18 lib/built-in.o
 .data.efi_mem  0x0000000080858edc        0x8 lib/built-in.o
                0x0000000080858edc                efi_mem
 .data.sha256_padding
                0x0000000080858ee4       0x40 lib/built-in.o
 .data.first_call.8250
                0x0000000080858f24        0x4 net/built-in.o
 .data.net_native_vlan
                0x0000000080858f28        0x2 net/built-in.o
                0x0000000080858f28                net_native_vlan
 .data.net_our_vlan
                0x0000000080858f2a        0x2 net/built-in.o
                0x0000000080858f2a                net_our_vlan
 .data.nfs_offset
                0x0000000080858f2c        0x4 net/built-in.o
 .data.tftp_block_size_option
                0x0000000080858f30        0x2 net/built-in.o
 *fill*         0x0000000080858f32        0x2 
 .data.tftp_timeout_count_max
                0x0000000080858f34        0x4 net/built-in.o
                0x0000000080858f34                tftp_timeout_count_max
 .data.timeout_ms
                0x0000000080858f38        0x4 net/built-in.o
 .data.tftp_block_size
                0x0000000080858f3c        0x2 net/built-in.o
 *fill*         0x0000000080858f3e        0x2 
 .data.timeout_count_max
                0x0000000080858f40        0x4 net/built-in.o
 .data.test_commands
                0x0000000080858f44       0x54 test/dm/built-in.o

.got            0x0000000080858f98        0x0
 .got           0x0000000080858f98        0x0 arch/arm/cpu/armv7/start.o

.got.plt        0x0000000080858f98        0xc
 .got.plt       0x0000000080858f98        0xc arch/arm/cpu/armv7/start.o
                0x0000000080858f98                _GLOBAL_OFFSET_TABLE_

.igot.plt       0x0000000080858fa4        0x0
 .igot.plt      0x0000000080858fa4        0x0 arch/arm/cpu/armv7/start.o

.__efi_runtime_rel_start
                0x0000000080858fa4        0x0
 .__efi_runtime_rel_start
                0x0000000080858fa4        0x0 arch/arm/lib/built-in.o

.__efi_runtime_stop
                0x0000000080858fa4        0x0
 .__efi_runtime_stop
                0x0000000080858fa4        0x0 arch/arm/lib/built-in.o

.__efi_runtime_rel_stop
                0x0000000080858fa4        0x0
 .__efi_runtime_rel_stop
                0x0000000080858fa4        0x0 arch/arm/lib/built-in.o

.__efi_runtime_start
                0x0000000080858fa4        0x0
 .__efi_runtime_start
                0x0000000080858fa4        0x0 arch/arm/lib/built-in.o

efi_runtime_data
                0x0000000080858fa8       0xc8
                0x0000000080858fa8                PROVIDE (__start_efi_runtime_data, .)
 efi_runtime_data
                0x0000000080858fa8       0xc8 lib/built-in.o
                0x0000000080858fa8                systab
                0x0000000080859020                efi_runtime_services
                0x0000000080859070                PROVIDE (__stop_efi_runtime_data, .)
                0x0000000080859070                . = ALIGN (0x4)
                0x0000000080859070                . = .
                0x0000000080859070                . = ALIGN (0x4)

.u_boot_list    0x0000000080859070      0xdfc
 *(SORT(.u_boot_list*))
 .u_boot_list_2_cmd_1
                0x0000000080859070        0x0 cmd/built-in.o
 .u_boot_list_2_cmd_1
                0x0000000080859070        0x0 common/built-in.o
 .u_boot_list_2_cmd_2_askenv
                0x0000000080859070       0x1c cmd/built-in.o
                0x0000000080859070                _u_boot_list_2_cmd_2_askenv
 .u_boot_list_2_cmd_2_base
                0x000000008085908c       0x1c cmd/built-in.o
                0x000000008085908c                _u_boot_list_2_cmd_2_base
 .u_boot_list_2_cmd_2_bdinfo
                0x00000000808590a8       0x1c cmd/built-in.o
                0x00000000808590a8                _u_boot_list_2_cmd_2_bdinfo
 .u_boot_list_2_cmd_2_boot
                0x00000000808590c4       0x1c cmd/built-in.o
                0x00000000808590c4                _u_boot_list_2_cmd_2_boot
 .u_boot_list_2_cmd_2_bootd
                0x00000000808590e0       0x1c cmd/built-in.o
                0x00000000808590e0                _u_boot_list_2_cmd_2_bootd
 .u_boot_list_2_cmd_2_bootefi
                0x00000000808590fc       0x1c cmd/built-in.o
                0x00000000808590fc                _u_boot_list_2_cmd_2_bootefi
 .u_boot_list_2_cmd_2_bootelf
                0x0000000080859118       0x1c cmd/built-in.o
                0x0000000080859118                _u_boot_list_2_cmd_2_bootelf
 .u_boot_list_2_cmd_2_bootm
                0x0000000080859134       0x1c cmd/built-in.o
                0x0000000080859134                _u_boot_list_2_cmd_2_bootm
 .u_boot_list_2_cmd_2_bootp
                0x0000000080859150       0x1c cmd/built-in.o
                0x0000000080859150                _u_boot_list_2_cmd_2_bootp
 .u_boot_list_2_cmd_2_bootvx
                0x000000008085916c       0x1c cmd/built-in.o
                0x000000008085916c                _u_boot_list_2_cmd_2_bootvx
 .u_boot_list_2_cmd_2_bootz
                0x0000000080859188       0x1c cmd/built-in.o
                0x0000000080859188                _u_boot_list_2_cmd_2_bootz
 .u_boot_list_2_cmd_2_chpart
                0x00000000808591a4       0x1c cmd/built-in.o
                0x00000000808591a4                _u_boot_list_2_cmd_2_chpart
 .u_boot_list_2_cmd_2_cmp
                0x00000000808591c0       0x1c cmd/built-in.o
                0x00000000808591c0                _u_boot_list_2_cmd_2_cmp
 .u_boot_list_2_cmd_2_coninfo
                0x00000000808591dc       0x1c cmd/built-in.o
                0x00000000808591dc                _u_boot_list_2_cmd_2_coninfo
 .u_boot_list_2_cmd_2_cp
                0x00000000808591f8       0x1c cmd/built-in.o
                0x00000000808591f8                _u_boot_list_2_cmd_2_cp
 .u_boot_list_2_cmd_2_crc32
                0x0000000080859214       0x1c cmd/built-in.o
                0x0000000080859214                _u_boot_list_2_cmd_2_crc32
 .u_boot_list_2_cmd_2_dhcp
                0x0000000080859230       0x1c cmd/built-in.o
                0x0000000080859230                _u_boot_list_2_cmd_2_dhcp
 .u_boot_list_2_cmd_2_dm
                0x000000008085924c       0x1c test/dm/built-in.o
                0x000000008085924c                _u_boot_list_2_cmd_2_dm
 .u_boot_list_2_cmd_2_echo
                0x0000000080859268       0x1c cmd/built-in.o
                0x0000000080859268                _u_boot_list_2_cmd_2_echo
 .u_boot_list_2_cmd_2_editenv
                0x0000000080859284       0x1c cmd/built-in.o
                0x0000000080859284                _u_boot_list_2_cmd_2_editenv
 .u_boot_list_2_cmd_2_eeprom
                0x00000000808592a0       0x1c cmd/built-in.o
                0x00000000808592a0                _u_boot_list_2_cmd_2_eeprom
 .u_boot_list_2_cmd_2_env
                0x00000000808592bc       0x1c cmd/built-in.o
                0x00000000808592bc                _u_boot_list_2_cmd_2_env
 .u_boot_list_2_cmd_2_exit
                0x00000000808592d8       0x1c cmd/built-in.o
                0x00000000808592d8                _u_boot_list_2_cmd_2_exit
 .u_boot_list_2_cmd_2_ext2load
                0x00000000808592f4       0x1c cmd/built-in.o
                0x00000000808592f4                _u_boot_list_2_cmd_2_ext2load
 .u_boot_list_2_cmd_2_ext2ls
                0x0000000080859310       0x1c cmd/built-in.o
                0x0000000080859310                _u_boot_list_2_cmd_2_ext2ls
 .u_boot_list_2_cmd_2_ext4load
                0x000000008085932c       0x1c cmd/built-in.o
                0x000000008085932c                _u_boot_list_2_cmd_2_ext4load
 .u_boot_list_2_cmd_2_ext4ls
                0x0000000080859348       0x1c cmd/built-in.o
                0x0000000080859348                _u_boot_list_2_cmd_2_ext4ls
 .u_boot_list_2_cmd_2_ext4size
                0x0000000080859364       0x1c cmd/built-in.o
                0x0000000080859364                _u_boot_list_2_cmd_2_ext4size
 .u_boot_list_2_cmd_2_ext4write
                0x0000000080859380       0x1c cmd/built-in.o
                0x0000000080859380                _u_boot_list_2_cmd_2_ext4write
 .u_boot_list_2_cmd_2_false
                0x000000008085939c       0x1c cmd/built-in.o
                0x000000008085939c                _u_boot_list_2_cmd_2_false
 .u_boot_list_2_cmd_2_fatinfo
                0x00000000808593b8       0x1c cmd/built-in.o
                0x00000000808593b8                _u_boot_list_2_cmd_2_fatinfo
 .u_boot_list_2_cmd_2_fatload
                0x00000000808593d4       0x1c cmd/built-in.o
                0x00000000808593d4                _u_boot_list_2_cmd_2_fatload
 .u_boot_list_2_cmd_2_fatls
                0x00000000808593f0       0x1c cmd/built-in.o
                0x00000000808593f0                _u_boot_list_2_cmd_2_fatls
 .u_boot_list_2_cmd_2_fatsize
                0x000000008085940c       0x1c cmd/built-in.o
                0x000000008085940c                _u_boot_list_2_cmd_2_fatsize
 .u_boot_list_2_cmd_2_fatwrite
                0x0000000080859428       0x1c cmd/built-in.o
                0x0000000080859428                _u_boot_list_2_cmd_2_fatwrite
 .u_boot_list_2_cmd_2_fdt
                0x0000000080859444       0x1c cmd/built-in.o
                0x0000000080859444                _u_boot_list_2_cmd_2_fdt
 .u_boot_list_2_cmd_2_fstype
                0x0000000080859460       0x1c cmd/built-in.o
                0x0000000080859460                _u_boot_list_2_cmd_2_fstype
 .u_boot_list_2_cmd_2_go
                0x000000008085947c       0x1c cmd/built-in.o
                0x000000008085947c                _u_boot_list_2_cmd_2_go
 .u_boot_list_2_cmd_2_gpio
                0x0000000080859498       0x1c cmd/built-in.o
                0x0000000080859498                _u_boot_list_2_cmd_2_gpio
 .u_boot_list_2_cmd_2_gpt
                0x00000000808594b4       0x1c cmd/built-in.o
                0x00000000808594b4                _u_boot_list_2_cmd_2_gpt
 .u_boot_list_2_cmd_2_help
                0x00000000808594d0       0x1c cmd/built-in.o
                0x00000000808594d0                _u_boot_list_2_cmd_2_help
 .u_boot_list_2_cmd_2_i2c
                0x00000000808594ec       0x1c cmd/built-in.o
                0x00000000808594ec                _u_boot_list_2_cmd_2_i2c
 .u_boot_list_2_cmd_2_iminfo
                0x0000000080859508       0x1c cmd/built-in.o
                0x0000000080859508                _u_boot_list_2_cmd_2_iminfo
 .u_boot_list_2_cmd_2_imxtract
                0x0000000080859524       0x1c cmd/built-in.o
                0x0000000080859524                _u_boot_list_2_cmd_2_imxtract
 .u_boot_list_2_cmd_2_itest
                0x0000000080859540       0x1c cmd/built-in.o
                0x0000000080859540                _u_boot_list_2_cmd_2_itest
 .u_boot_list_2_cmd_2_load
                0x000000008085955c       0x1c cmd/built-in.o
                0x000000008085955c                _u_boot_list_2_cmd_2_load
 .u_boot_list_2_cmd_2_loadb
                0x0000000080859578       0x1c cmd/built-in.o
                0x0000000080859578                _u_boot_list_2_cmd_2_loadb
 .u_boot_list_2_cmd_2_loads
                0x0000000080859594       0x1c cmd/built-in.o
                0x0000000080859594                _u_boot_list_2_cmd_2_loads
 .u_boot_list_2_cmd_2_loadx
                0x00000000808595b0       0x1c cmd/built-in.o
                0x00000000808595b0                _u_boot_list_2_cmd_2_loadx
 .u_boot_list_2_cmd_2_loady
                0x00000000808595cc       0x1c cmd/built-in.o
                0x00000000808595cc                _u_boot_list_2_cmd_2_loady
 .u_boot_list_2_cmd_2_loop
                0x00000000808595e8       0x1c cmd/built-in.o
                0x00000000808595e8                _u_boot_list_2_cmd_2_loop
 .u_boot_list_2_cmd_2_ls
                0x0000000080859604       0x1c cmd/built-in.o
                0x0000000080859604                _u_boot_list_2_cmd_2_ls
 .u_boot_list_2_cmd_2_md
                0x0000000080859620       0x1c cmd/built-in.o
                0x0000000080859620                _u_boot_list_2_cmd_2_md
 .u_boot_list_2_cmd_2_mdio
                0x000000008085963c       0x1c cmd/built-in.o
                0x000000008085963c                _u_boot_list_2_cmd_2_mdio
 .u_boot_list_2_cmd_2_mii
                0x0000000080859658       0x1c cmd/built-in.o
                0x0000000080859658                _u_boot_list_2_cmd_2_mii
 .u_boot_list_2_cmd_2_mm
                0x0000000080859674       0x1c cmd/built-in.o
                0x0000000080859674                _u_boot_list_2_cmd_2_mm
 .u_boot_list_2_cmd_2_mmc
                0x0000000080859690       0x1c cmd/built-in.o
                0x0000000080859690                _u_boot_list_2_cmd_2_mmc
 .u_boot_list_2_cmd_2_mmcinfo
                0x00000000808596ac       0x1c cmd/built-in.o
                0x00000000808596ac                _u_boot_list_2_cmd_2_mmcinfo
 .u_boot_list_2_cmd_2_mtdparts
                0x00000000808596c8       0x1c cmd/built-in.o
                0x00000000808596c8                _u_boot_list_2_cmd_2_mtdparts
 .u_boot_list_2_cmd_2_mw
                0x00000000808596e4       0x1c cmd/built-in.o
                0x00000000808596e4                _u_boot_list_2_cmd_2_mw
 .u_boot_list_2_cmd_2_nfs
                0x0000000080859700       0x1c cmd/built-in.o
                0x0000000080859700                _u_boot_list_2_cmd_2_nfs
 .u_boot_list_2_cmd_2_nm
                0x000000008085971c       0x1c cmd/built-in.o
                0x000000008085971c                _u_boot_list_2_cmd_2_nm
 .u_boot_list_2_cmd_2_part
                0x0000000080859738       0x1c cmd/built-in.o
                0x0000000080859738                _u_boot_list_2_cmd_2_part
 .u_boot_list_2_cmd_2_ping
                0x0000000080859754       0x1c cmd/built-in.o
                0x0000000080859754                _u_boot_list_2_cmd_2_ping
 .u_boot_list_2_cmd_2_printenv
                0x0000000080859770       0x1c cmd/built-in.o
                0x0000000080859770                _u_boot_list_2_cmd_2_printenv
 .u_boot_list_2_cmd_2_pxe
                0x000000008085978c       0x1c cmd/built-in.o
                0x000000008085978c                _u_boot_list_2_cmd_2_pxe
 .u_boot_list_2_cmd_2_question_mark
                0x00000000808597a8       0x1c cmd/built-in.o
                0x00000000808597a8                _u_boot_list_2_cmd_2_question_mark
 .u_boot_list_2_cmd_2_reset
                0x00000000808597c4       0x1c cmd/built-in.o
                0x00000000808597c4                _u_boot_list_2_cmd_2_reset
 .u_boot_list_2_cmd_2_run
                0x00000000808597e0       0x1c cmd/built-in.o
                0x00000000808597e0                _u_boot_list_2_cmd_2_run
 .u_boot_list_2_cmd_2_save
                0x00000000808597fc       0x1c cmd/built-in.o
                0x00000000808597fc                _u_boot_list_2_cmd_2_save
 .u_boot_list_2_cmd_2_setenv
                0x0000000080859818       0x1c cmd/built-in.o
                0x0000000080859818                _u_boot_list_2_cmd_2_setenv
 .u_boot_list_2_cmd_2_showvar
                0x0000000080859834       0x1c common/built-in.o
                0x0000000080859834                _u_boot_list_2_cmd_2_showvar
 .u_boot_list_2_cmd_2_size
                0x0000000080859850       0x1c cmd/built-in.o
                0x0000000080859850                _u_boot_list_2_cmd_2_size
 .u_boot_list_2_cmd_2_sleep
                0x000000008085986c       0x1c cmd/built-in.o
                0x000000008085986c                _u_boot_list_2_cmd_2_sleep
 .u_boot_list_2_cmd_2_source
                0x0000000080859888       0x1c cmd/built-in.o
                0x0000000080859888                _u_boot_list_2_cmd_2_source
 .u_boot_list_2_cmd_2_spl
                0x00000000808598a4       0x1c cmd/built-in.o
                0x00000000808598a4                _u_boot_list_2_cmd_2_spl
 .u_boot_list_2_cmd_2_sysboot
                0x00000000808598c0       0x1c cmd/built-in.o
                0x00000000808598c0                _u_boot_list_2_cmd_2_sysboot
 .u_boot_list_2_cmd_2_test
                0x00000000808598dc       0x1c cmd/built-in.o
                0x00000000808598dc                _u_boot_list_2_cmd_2_test
 .u_boot_list_2_cmd_2_tftpboot
                0x00000000808598f8       0x1c cmd/built-in.o
                0x00000000808598f8                _u_boot_list_2_cmd_2_tftpboot
 .u_boot_list_2_cmd_2_time
                0x0000000080859914       0x1c cmd/built-in.o
                0x0000000080859914                _u_boot_list_2_cmd_2_time
 .u_boot_list_2_cmd_2_true
                0x0000000080859930       0x1c cmd/built-in.o
                0x0000000080859930                _u_boot_list_2_cmd_2_true
 .u_boot_list_2_cmd_2_ubi
                0x000000008085994c       0x1c cmd/built-in.o
                0x000000008085994c                _u_boot_list_2_cmd_2_ubi
 .u_boot_list_2_cmd_2_ubifsload
                0x0000000080859968       0x1c cmd/built-in.o
                0x0000000080859968                _u_boot_list_2_cmd_2_ubifsload
 .u_boot_list_2_cmd_2_ubifsls
                0x0000000080859984       0x1c cmd/built-in.o
                0x0000000080859984                _u_boot_list_2_cmd_2_ubifsls
 .u_boot_list_2_cmd_2_ubifsmount
                0x00000000808599a0       0x1c cmd/built-in.o
                0x00000000808599a0                _u_boot_list_2_cmd_2_ubifsmount
 .u_boot_list_2_cmd_2_ubifsumount
                0x00000000808599bc       0x1c cmd/built-in.o
                0x00000000808599bc                _u_boot_list_2_cmd_2_ubifsumount
 .u_boot_list_2_cmd_2_usb
                0x00000000808599d8       0x1c cmd/built-in.o
                0x00000000808599d8                _u_boot_list_2_cmd_2_usb
 .u_boot_list_2_cmd_2_usbboot
                0x00000000808599f4       0x1c cmd/built-in.o
                0x00000000808599f4                _u_boot_list_2_cmd_2_usbboot
 .u_boot_list_2_cmd_2_version
                0x0000000080859a10       0x1c cmd/built-in.o
                0x0000000080859a10                _u_boot_list_2_cmd_2_version
 .u_boot_list_2_cmd_3
                0x0000000080859a2c        0x0 cmd/built-in.o
 .u_boot_list_2_cmd_3
                0x0000000080859a2c        0x0 common/built-in.o
 .u_boot_list_2_driver_1
                0x0000000080859a2c        0x0 drivers/built-in.o
 .u_boot_list_2_driver_2_gpio_omap
                0x0000000080859a2c       0x44 drivers/gpio/built-in.o
                0x0000000080859a2c                _u_boot_list_2_driver_2_gpio_omap
 .u_boot_list_2_driver_2_mod_exp_sw
                0x0000000080859a70       0x44 drivers/built-in.o
                0x0000000080859a70                _u_boot_list_2_driver_2_mod_exp_sw
 .u_boot_list_2_driver_2_ns16550_serial
                0x0000000080859ab4       0x44 drivers/serial/built-in.o
                0x0000000080859ab4                _u_boot_list_2_driver_2_ns16550_serial
 .u_boot_list_2_driver_2_root_driver
                0x0000000080859af8       0x44 drivers/built-in.o
                0x0000000080859af8                _u_boot_list_2_driver_2_root_driver
 .u_boot_list_2_driver_3
                0x0000000080859b3c        0x0 drivers/built-in.o
 .u_boot_list_2_driver_info_1
                0x0000000080859b3c        0x0 drivers/built-in.o
 .u_boot_list_2_driver_info_2_am33xx_gpios
                0x0000000080859b3c       0x20 arch/arm/cpu/armv7/built-in.o
                0x0000000080859b3c                _u_boot_list_2_driver_info_2_am33xx_gpios
 .u_boot_list_2_driver_info_2_am33xx_uarts
                0x0000000080859b5c       0x30 arch/arm/cpu/armv7/built-in.o
                0x0000000080859b5c                _u_boot_list_2_driver_info_2_am33xx_uarts
 .u_boot_list_2_driver_info_2_mod_exp_sw
                0x0000000080859b8c        0x8 drivers/built-in.o
                0x0000000080859b8c                _u_boot_list_2_driver_info_2_mod_exp_sw
 .u_boot_list_2_driver_info_3
                0x0000000080859b94        0x0 drivers/built-in.o
 .u_boot_list_2_env_clbk_1
                0x0000000080859b94        0x0 common/built-in.o
 .u_boot_list_2_env_clbk_2_baudrate
                0x0000000080859b94        0x8 drivers/serial/built-in.o
                0x0000000080859b94                _u_boot_list_2_env_clbk_2_baudrate
 .u_boot_list_2_env_clbk_2_bootfile
                0x0000000080859b9c        0x8 net/built-in.o
                0x0000000080859b9c                _u_boot_list_2_env_clbk_2_bootfile
 .u_boot_list_2_env_clbk_2_callbacks
                0x0000000080859ba4        0x8 common/built-in.o
                0x0000000080859ba4                _u_boot_list_2_env_clbk_2_callbacks
 .u_boot_list_2_env_clbk_2_console
                0x0000000080859bac        0x8 common/built-in.o
                0x0000000080859bac                _u_boot_list_2_env_clbk_2_console
 .u_boot_list_2_env_clbk_2_ethaddr
                0x0000000080859bb4        0x8 net/built-in.o
                0x0000000080859bb4                _u_boot_list_2_env_clbk_2_ethaddr
 .u_boot_list_2_env_clbk_2_flags
                0x0000000080859bbc        0x8 common/built-in.o
                0x0000000080859bbc                _u_boot_list_2_env_clbk_2_flags
 .u_boot_list_2_env_clbk_2_gatewayip
                0x0000000080859bc4        0x8 net/built-in.o
                0x0000000080859bc4                _u_boot_list_2_env_clbk_2_gatewayip
 .u_boot_list_2_env_clbk_2_ipaddr
                0x0000000080859bcc        0x8 net/built-in.o
                0x0000000080859bcc                _u_boot_list_2_env_clbk_2_ipaddr
 .u_boot_list_2_env_clbk_2_loadaddr
                0x0000000080859bd4        0x8 common/built-in.o
                0x0000000080859bd4                _u_boot_list_2_env_clbk_2_loadaddr
 .u_boot_list_2_env_clbk_2_netmask
                0x0000000080859bdc        0x8 net/built-in.o
                0x0000000080859bdc                _u_boot_list_2_env_clbk_2_netmask
 .u_boot_list_2_env_clbk_2_nvlan
                0x0000000080859be4        0x8 net/built-in.o
                0x0000000080859be4                _u_boot_list_2_env_clbk_2_nvlan
 .u_boot_list_2_env_clbk_2_serverip
                0x0000000080859bec        0x8 net/built-in.o
                0x0000000080859bec                _u_boot_list_2_env_clbk_2_serverip
 .u_boot_list_2_env_clbk_2_vlan
                0x0000000080859bf4        0x8 net/built-in.o
                0x0000000080859bf4                _u_boot_list_2_env_clbk_2_vlan
 .u_boot_list_2_env_clbk_3
                0x0000000080859bfc        0x0 common/built-in.o
 .u_boot_list_2_g_dnl_bind_callbacks_1
                0x0000000080859bfc        0x0 drivers/usb/gadget/built-in.o
 .u_boot_list_2_g_dnl_bind_callbacks_3
                0x0000000080859bfc        0x0 drivers/usb/gadget/built-in.o
 .u_boot_list_2_i2c_1
                0x0000000080859bfc        0x0 cmd/built-in.o
 .u_boot_list_2_i2c_1
                0x0000000080859bfc        0x0 drivers/i2c/built-in.o
 .u_boot_list_2_i2c_2_omap24_0
                0x0000000080859bfc       0x2c drivers/i2c/built-in.o
                0x0000000080859bfc                _u_boot_list_2_i2c_2_omap24_0
 .u_boot_list_2_i2c_2_omap24_1
                0x0000000080859c28       0x2c drivers/i2c/built-in.o
                0x0000000080859c28                _u_boot_list_2_i2c_2_omap24_1
 .u_boot_list_2_i2c_2_omap24_2
                0x0000000080859c54       0x2c drivers/i2c/built-in.o
                0x0000000080859c54                _u_boot_list_2_i2c_2_omap24_2
 .u_boot_list_2_i2c_3
                0x0000000080859c80        0x0 cmd/built-in.o
 .u_boot_list_2_i2c_3
                0x0000000080859c80        0x0 drivers/i2c/built-in.o
 .u_boot_list_2_part_driver_1
                0x0000000080859c80        0x0 disk/built-in.o
 .u_boot_list_2_part_driver_2_a_efi
                0x0000000080859c80       0x14 disk/built-in.o
                0x0000000080859c80                _u_boot_list_2_part_driver_2_a_efi
 .u_boot_list_2_part_driver_2_dos
                0x0000000080859c94       0x14 disk/built-in.o
                0x0000000080859c94                _u_boot_list_2_part_driver_2_dos
 .u_boot_list_2_part_driver_2_iso
                0x0000000080859ca8       0x14 disk/built-in.o
                0x0000000080859ca8                _u_boot_list_2_part_driver_2_iso
 .u_boot_list_2_part_driver_3
                0x0000000080859cbc        0x0 disk/built-in.o
 .u_boot_list_2_uclass_1
                0x0000000080859cbc        0x0 drivers/built-in.o
 .u_boot_list_2_uclass_2_disk
                0x0000000080859cbc       0x48 drivers/built-in.o
                0x0000000080859cbc                _u_boot_list_2_uclass_2_disk
 .u_boot_list_2_uclass_2_gpio
                0x0000000080859d04       0x48 drivers/gpio/built-in.o
                0x0000000080859d04                _u_boot_list_2_uclass_2_gpio
 .u_boot_list_2_uclass_2_misc
                0x0000000080859d4c       0x48 drivers/built-in.o
                0x0000000080859d4c                _u_boot_list_2_uclass_2_misc
 .u_boot_list_2_uclass_2_mod_exp
                0x0000000080859d94       0x48 drivers/built-in.o
                0x0000000080859d94                _u_boot_list_2_uclass_2_mod_exp
 .u_boot_list_2_uclass_2_root
                0x0000000080859ddc       0x48 drivers/built-in.o
                0x0000000080859ddc                _u_boot_list_2_uclass_2_root
 .u_boot_list_2_uclass_2_serial
                0x0000000080859e24       0x48 drivers/serial/built-in.o
                0x0000000080859e24                _u_boot_list_2_uclass_2_serial
 .u_boot_list_2_uclass_3
                0x0000000080859e6c        0x0 drivers/built-in.o
                0x0000000080859e6c                . = ALIGN (0x4)

.image_copy_end
                0x0000000080859e6c        0x0
 *(.__image_copy_end)
 .__image_copy_end
                0x0000000080859e6c        0x0 arch/arm/lib/built-in.o

.rel_dyn_start  0x0000000080859e6c        0x0
 *(.__rel_dyn_start)
 .__rel_dyn_start
                0x0000000080859e6c        0x0 arch/arm/lib/built-in.o

.rel.dyn        0x0000000080859e6c     0xa938
 *(.rel*)
 .rel.got       0x0000000080859e6c        0x0 arch/arm/cpu/armv7/start.o
 .rel.plt       0x0000000080859e6c        0x0 arch/arm/cpu/armv7/start.o
 .rel.iplt      0x0000000080859e6c        0x0 arch/arm/cpu/armv7/start.o
 .rel.text      0x0000000080859e6c       0x20 arch/arm/cpu/armv7/start.o
 .rel.text.ft_board_setup
                0x0000000080859e8c       0x48 arch/arm/cpu/armv7/start.o
 .rel.text.board_eth_init
                0x0000000080859ed4       0x38 arch/arm/cpu/armv7/start.o
 .rel.data.cpsw_data
                0x0000000080859f0c       0x10 arch/arm/cpu/armv7/start.o
 .rel.text.invalidate_dcache_range
                0x0000000080859f1c       0x18 arch/arm/cpu/armv7/start.o
 .rel.text.omap_die_id_serial
                0x0000000080859f34        0x0 arch/arm/cpu/armv7/start.o
 .rel.text.omap_die_id_get_board_serial
                0x0000000080859f34        0x0 arch/arm/cpu/armv7/start.o
 .rel.text.omap_die_id_usbethaddr
                0x0000000080859f34        0x0 arch/arm/cpu/armv7/start.o
 .rel.text.omap_die_id_display
                0x0000000080859f34        0x0 arch/arm/cpu/armv7/start.o
 .rel.text.gpmc_init
                0x0000000080859f34        0x0 arch/arm/cpu/armv7/start.o
 .rel.text.get_dpll_mpu_params
                0x0000000080859f34        0x0 arch/arm/cpu/armv7/start.o
 .rel.text.get_dpll_core_params
                0x0000000080859f34        0x0 arch/arm/cpu/armv7/start.o
 .rel.text.get_dpll_per_params
                0x0000000080859f34        0x0 arch/arm/cpu/armv7/start.o
 .rel.text.enable_basic_clocks
                0x0000000080859f34        0x0 arch/arm/cpu/armv7/start.o
 .rel.text.do_setup_dpll
                0x0000000080859f34        0x0 arch/arm/cpu/armv7/start.o
 .rel.text.do_enable_clocks
                0x0000000080859f34        0x0 arch/arm/cpu/armv7/start.o
 .rel.text.do_disable_clocks
                0x0000000080859f34        0x0 arch/arm/cpu/armv7/start.o
 .rel.text.prcm_init
                0x0000000080859f34        0x0 arch/arm/cpu/armv7/start.o
 .rel.text.rtc_only_prcm_init
                0x0000000080859f34        0x0 arch/arm/cpu/armv7/start.o
 .rel.text.get_device_type
                0x0000000080859f34        0x8 arch/arm/cpu/armv7/start.o
 .rel.text.get_sysboot_value
                0x0000000080859f3c        0x0 arch/arm/cpu/armv7/start.o
 .rel.text.print_cpuinfo
                0x0000000080859f3c       0x38 arch/arm/cpu/armv7/start.o
 .rel.text.configure_mr
                0x0000000080859f74        0x0 arch/arm/cpu/armv7/start.o
 .rel.text.config_sdram_emif4d5
                0x0000000080859f74        0x0 arch/arm/cpu/armv7/start.o
 .rel.text.config_sdram
                0x0000000080859f74        0x0 arch/arm/cpu/armv7/start.o
 .rel.text.set_sdram_timings
                0x0000000080859f74        0x0 arch/arm/cpu/armv7/start.o
 .rel.text.config_ddr_phy
                0x0000000080859f74        0x0 arch/arm/cpu/armv7/start.o
 .rel.text.config_cmd_ctrl
                0x0000000080859f74        0x0 arch/arm/cpu/armv7/start.o
 .rel.text.config_ddr_data
                0x0000000080859f74        0x0 arch/arm/cpu/armv7/start.o
 .rel.text.arch_misc_init
                0x0000000080859f74       0x20 arch/arm/cpu/armv7/start.o
 .rel.rodata.cpu_revs
                0x0000000080859f94       0x18 arch/arm/cpu/armv7/start.o
 .rel.rodata.dev_types
                0x0000000080859fac       0x20 arch/arm/cpu/armv7/start.o
 .rel.u_boot_list_2_driver_info_2_am33xx_uarts
                0x0000000080859fcc       0x60 arch/arm/cpu/armv7/start.o
 .rel.u_boot_list_2_driver_info_2_am33xx_gpios
                0x000000008085a02c       0x40 arch/arm/cpu/armv7/start.o
 .rel.data.otg1_board_data
                0x000000008085a06c        0x8 arch/arm/cpu/armv7/start.o
 .rel.data.otg1_plat
                0x000000008085a074       0x18 arch/arm/cpu/armv7/start.o
 .rel.data.otg0_board_data
                0x000000008085a08c        0x8 arch/arm/cpu/armv7/start.o
 .rel.data.otg0_plat
                0x000000008085a094       0x18 arch/arm/cpu/armv7/start.o
 .rel.vectors   0x000000008085a0ac       0x38 arch/arm/cpu/armv7/start.o
 .rel.text.relocate_vectors
                0x000000008085a0e4       0x20 arch/arm/cpu/armv7/start.o
 .rel.text.boot_jump_linux
                0x000000008085a104       0x28 arch/arm/cpu/armv7/start.o
 .rel.text.boot_prep_linux
                0x000000008085a12c       0x18 arch/arm/cpu/armv7/start.o
 .rel.text.bootz_setup
                0x000000008085a144       0x10 arch/arm/cpu/armv7/start.o
 .rel.text.boot_prep_vxworks
                0x000000008085a154       0x10 arch/arm/cpu/armv7/start.o
 .rel.text.interrupt_init
                0x000000008085a164        0x8 arch/arm/cpu/armv7/start.o
 .rel.text.bad_mode
                0x000000008085a16c        0x8 arch/arm/cpu/armv7/start.o
 .rel.text.show_regs
                0x000000008085a174       0x60 arch/arm/cpu/armv7/start.o
 .rel.text.do_undefined_instruction
                0x000000008085a1d4        0x8 arch/arm/cpu/armv7/start.o
 .rel.text.do_software_interrupt
                0x000000008085a1dc        0x8 arch/arm/cpu/armv7/start.o
 .rel.text.do_prefetch_abort
                0x000000008085a1e4        0x8 arch/arm/cpu/armv7/start.o
 .rel.text.do_data_abort
                0x000000008085a1ec        0x8 arch/arm/cpu/armv7/start.o
 .rel.text.do_not_used
                0x000000008085a1f4        0x8 arch/arm/cpu/armv7/start.o
 .rel.text.do_fiq
                0x000000008085a1fc        0x8 arch/arm/cpu/armv7/start.o
 .rel.text.do_irq
                0x000000008085a204        0x8 arch/arm/cpu/armv7/start.o
 .rel.text.do_reset
                0x000000008085a20c        0x8 arch/arm/cpu/armv7/start.o
 .rel.text.enable_caches
                0x000000008085a214        0x0 arch/arm/cpu/armv7/start.o
 .rel.rodata    0x000000008085a214      0x100 arch/arm/cpu/armv7/start.o
 .rel.text.do_go
                0x000000008085a314       0x10 arch/arm/cpu/armv7/start.o
 .rel.text.do_bootm
                0x000000008085a324       0x18 arch/arm/cpu/armv7/start.o
 .rel.text.do_bootd
                0x000000008085a33c        0x8 arch/arm/cpu/armv7/start.o
 .rel.text.image_info
                0x000000008085a344       0x58 arch/arm/cpu/armv7/start.o
 .rel.text.do_iminfo
                0x000000008085a39c        0x8 arch/arm/cpu/armv7/start.o
 .rel.text.bootm_maybe_autostart
                0x000000008085a3a4       0x20 arch/arm/cpu/armv7/start.o
 .rel.text.do_bootz
                0x000000008085a3c4       0x18 arch/arm/cpu/armv7/start.o
 .rel.text.do_help
                0x000000008085a3dc       0x10 arch/arm/cpu/armv7/start.o
 .rel.text.do_version
                0x000000008085a3ec       0x20 arch/arm/cpu/armv7/start.o
 .rel.text.source
                0x000000008085a40c       0x68 arch/arm/cpu/armv7/start.o
 .rel.text.do_source
                0x000000008085a474       0x10 arch/arm/cpu/armv7/start.o
 .rel.text.print_num
                0x000000008085a484        0x8 arch/arm/cpu/armv7/start.o
 .rel.text.do_bdinfo
                0x000000008085a48c       0x98 arch/arm/cpu/armv7/start.o
 .rel.text.bootefi_open_dp
                0x000000008085a524        0x8 arch/arm/cpu/armv7/start.o
 .rel.text.do_bootefi_exec
                0x000000008085a52c       0x40 arch/arm/cpu/armv7/start.o
 .rel.text.do_bootefi
                0x000000008085a56c       0x10 arch/arm/cpu/armv7/start.o
 .rel.text.efi_set_bootdev
                0x000000008085a57c       0x28 arch/arm/cpu/armv7/start.o
 .rel.text.do_coninfo
                0x000000008085a5a4       0x28 arch/arm/cpu/armv7/start.o
 .rel.text.do_echo
                0x000000008085a5cc        0x8 arch/arm/cpu/armv7/start.o
 .rel.text.do_eeprom
                0x000000008085a5d4       0x20 arch/arm/cpu/armv7/start.o
 .rel.text.valid_elf_image
                0x000000008085a5f4       0x10 arch/arm/cpu/armv7/start.o
 .rel.text.do_bootelf
                0x000000008085a604       0x28 arch/arm/cpu/armv7/start.o
 .rel.text.do_bootvx
                0x000000008085a62c       0xe0 arch/arm/cpu/armv7/start.o
 .rel.text.do_fat_fsinfo
                0x000000008085a70c       0x10 arch/arm/cpu/armv7/start.o
 .rel.text.do_fat_fswrite
                0x000000008085a71c       0x18 arch/arm/cpu/armv7/start.o
 .rel.text.fdt_valid
                0x000000008085a734       0x28 arch/arm/cpu/armv7/start.o
 .rel.text.is_printable_string
                0x000000008085a75c        0x8 arch/arm/cpu/armv7/start.o
 .rel.text.print_data
                0x000000008085a764       0x58 arch/arm/cpu/armv7/start.o
 .rel.text.set_working_fdt_addr
                0x000000008085a7bc       0x10 arch/arm/cpu/armv7/start.o
 .rel.text.do_fdt
                0x000000008085a7cc      0x250 arch/arm/cpu/armv7/start.o
 .rel.text.do_load_wrapper
                0x000000008085aa1c        0x8 arch/arm/cpu/armv7/start.o
 .rel.text.gpio_get_description
                0x000000008085aa24       0x18 arch/arm/cpu/armv7/start.o
 .rel.text.do_gpio
                0x000000008085aa3c       0x50 arch/arm/cpu/armv7/start.o
 .rel.text.do_i2c
                0x000000008085aa8c        0x8 arch/arm/cpu/armv7/start.o
 .rel.text.do_i2c_bus_speed
                0x000000008085aa94       0x18 arch/arm/cpu/armv7/start.o
 .rel.text.do_i2c_probe
                0x000000008085aaac       0x10 arch/arm/cpu/armv7/start.o
 .rel.text.do_i2c_bus_num
                0x000000008085aabc       0x30 arch/arm/cpu/armv7/start.o
 .rel.text.do_i2c_show_bus
                0x000000008085aaec       0x28 arch/arm/cpu/armv7/start.o
 .rel.text.do_i2c_crc
                0x000000008085ab14       0x20 arch/arm/cpu/armv7/start.o
 .rel.text.mod_i2c_mem.isra.3
                0x000000008085ab34       0x60 arch/arm/cpu/armv7/start.o
 .rel.text.do_i2c_md
                0x000000008085ab94       0x58 arch/arm/cpu/armv7/start.o
 .rel.text.do_i2c_read
                0x000000008085abec       0x10 arch/arm/cpu/armv7/start.o
 .rel.text.do_i2c_mw
                0x000000008085abfc       0x10 arch/arm/cpu/armv7/start.o
 .rel.text.do_i2c_write
                0x000000008085ac0c       0x18 arch/arm/cpu/armv7/start.o
 .rel.text.do_i2c_loop
                0x000000008085ac24       0x10 arch/arm/cpu/armv7/start.o
 .rel.text.binary_test
                0x000000008085ac34       0x10 arch/arm/cpu/armv7/start.o
 .rel.text.do_itest
                0x000000008085ac44        0x8 arch/arm/cpu/armv7/start.o
 .rel.text.bin_data_init
                0x000000008085ac4c       0x18 arch/arm/cpu/armv7/start.o
 .rel.text.k_data_save
                0x000000008085ac64       0x30 arch/arm/cpu/armv7/start.o
 .rel.text.k_data_restore
                0x000000008085ac94       0x30 arch/arm/cpu/armv7/start.o
 .rel.text.load_serial_ymodem
                0x000000008085acc4       0x20 arch/arm/cpu/armv7/start.o
 .rel.text.bin_data_char
                0x000000008085ace4       0x10 arch/arm/cpu/armv7/start.o
 .rel.text.chk1.constprop.1
                0x000000008085acf4        0x8 arch/arm/cpu/armv7/start.o
 .rel.text.s1_sendpacket.constprop.2
                0x000000008085acfc       0x18 arch/arm/cpu/armv7/start.o
 .rel.text.load_serial
                0x000000008085ad14       0x20 arch/arm/cpu/armv7/start.o
 .rel.text.do_load_serial
                0x000000008085ad34       0x30 arch/arm/cpu/armv7/start.o
 .rel.text.do_load_serial_bin
                0x000000008085ad64      0x110 arch/arm/cpu/armv7/start.o
 .rel.text.do_mem_mw
                0x000000008085ae74        0x8 arch/arm/cpu/armv7/start.o
 .rel.text.do_mem_md
                0x000000008085ae7c       0x20 arch/arm/cpu/armv7/start.o
 .rel.text.do_mem_base
                0x000000008085ae9c       0x10 arch/arm/cpu/armv7/start.o
 .rel.text.do_mem_cp
                0x000000008085aeac       0x10 arch/arm/cpu/armv7/start.o
 .rel.text.do_mem_cmp
                0x000000008085aebc       0x38 arch/arm/cpu/armv7/start.o
 .rel.text.do_mem_crc
                0x000000008085aef4        0x8 arch/arm/cpu/armv7/start.o
 .rel.text.mod_mem.isra.0
                0x000000008085aefc       0x48 arch/arm/cpu/armv7/start.o
 .rel.text.do_mii
                0x000000008085af44      0x1a8 arch/arm/cpu/armv7/start.o
 .rel.text.do_mdio
                0x000000008085b0ec       0xa8 arch/arm/cpu/armv7/start.o
 .rel.text.do_mmcops
                0x000000008085b194       0x18 arch/arm/cpu/armv7/start.o
 .rel.text.init_mmc_device
                0x000000008085b1ac        0x8 arch/arm/cpu/armv7/start.o
 .rel.text.do_mmc_rescan
                0x000000008085b1b4        0x8 arch/arm/cpu/armv7/start.o
 .rel.text.do_mmc_rst_func
                0x000000008085b1bc       0x10 arch/arm/cpu/armv7/start.o
 .rel.text.do_mmc_partconf
                0x000000008085b1cc        0x8 arch/arm/cpu/armv7/start.o
 .rel.text.do_mmc_boot_resize
                0x000000008085b1d4       0x20 arch/arm/cpu/armv7/start.o
 .rel.text.do_mmc_bootbus
                0x000000008085b1f4        0x8 arch/arm/cpu/armv7/start.o
 .rel.text.do_mmc_hwpartition
                0x000000008085b1fc       0xc0 arch/arm/cpu/armv7/start.o
 .rel.text.do_mmc_dev
                0x000000008085b2bc       0x38 arch/arm/cpu/armv7/start.o
 .rel.text.do_mmc_part
                0x000000008085b2f4       0x10 arch/arm/cpu/armv7/start.o
 .rel.text.do_mmc_erase
                0x000000008085b304       0x30 arch/arm/cpu/armv7/start.o
 .rel.text.do_mmc_write
                0x000000008085b334       0x30 arch/arm/cpu/armv7/start.o
 .rel.text.do_mmc_read
                0x000000008085b364       0x28 arch/arm/cpu/armv7/start.o
 .rel.text.do_mmcinfo
                0x000000008085b38c       0xf8 arch/arm/cpu/armv7/start.o
 .rel.text.do_mmc_setdsr
                0x000000008085b484       0x28 arch/arm/cpu/armv7/start.o
 .rel.text.mtd_part_info
                0x000000008085b4ac       0x20 arch/arm/cpu/armv7/start.o
 .rel.text.memsize_format
                0x000000008085b4cc       0x20 arch/arm/cpu/armv7/start.o
 .rel.text.index_partitions
                0x000000008085b4ec       0x28 arch/arm/cpu/armv7/start.o
 .rel.text.current_save
                0x000000008085b514       0x40 arch/arm/cpu/armv7/start.o
 .rel.text.part_sort_add
                0x000000008085b554       0x18 arch/arm/cpu/armv7/start.o
 .rel.text.device_del
                0x000000008085b56c       0x18 arch/arm/cpu/armv7/start.o
 .rel.text.generate_mtdparts_save.constprop.6
                0x000000008085b584       0x28 arch/arm/cpu/armv7/start.o
 .rel.text.device_delall.constprop.8
                0x000000008085b5ac        0x8 arch/arm/cpu/armv7/start.o
 .rel.text.mtd_devices_init
                0x000000008085b5b4       0x10 arch/arm/cpu/armv7/start.o
 .rel.text.get_mtd_info.constprop.9
                0x000000008085b5c4       0x28 arch/arm/cpu/armv7/start.o
 .rel.text.part_validate
                0x000000008085b5ec       0x48 arch/arm/cpu/armv7/start.o
 .rel.text.device_find
                0x000000008085b634        0x8 arch/arm/cpu/armv7/start.o
 .rel.text.device_parse
                0x000000008085b63c       0x88 arch/arm/cpu/armv7/start.o
 .rel.text.mtd_id_parse
                0x000000008085b6c4       0x30 arch/arm/cpu/armv7/start.o
 .rel.text.find_dev_and_part
                0x000000008085b6f4       0x40 arch/arm/cpu/armv7/start.o
 .rel.text.mtdparts_init
                0x000000008085b734      0x108 arch/arm/cpu/armv7/start.o
 .rel.text.do_chpart
                0x000000008085b83c       0x38 arch/arm/cpu/armv7/start.o
 .rel.text.do_mtdparts
                0x000000008085b874      0x118 arch/arm/cpu/armv7/start.o
 .rel.text.netboot_common
                0x000000008085b98c       0xa8 arch/arm/cpu/armv7/start.o
 .rel.text.do_ping
                0x000000008085ba34       0x18 arch/arm/cpu/armv7/start.o
 .rel.text.do_part_list
                0x000000008085ba4c       0x28 arch/arm/cpu/armv7/start.o
 .rel.text.do_part_start
                0x000000008085ba74       0x10 arch/arm/cpu/armv7/start.o
 .rel.text.do_part_size
                0x000000008085ba84       0x10 arch/arm/cpu/armv7/start.o
 .rel.text.do_part
                0x000000008085ba94       0x28 arch/arm/cpu/armv7/start.o
 .rel.text.do_pxe
                0x000000008085babc       0x10 arch/arm/cpu/armv7/start.o
 .rel.text.label_print
                0x000000008085bacc        0x8 arch/arm/cpu/armv7/start.o
 .rel.text.do_get_tftp
                0x000000008085bad4        0x8 arch/arm/cpu/armv7/start.o
 .rel.text.from_env
                0x000000008085badc        0x8 arch/arm/cpu/armv7/start.o
 .rel.text.get_string
                0x000000008085bae4        0x8 arch/arm/cpu/armv7/start.o
 .rel.text.get_token
                0x000000008085baec        0x8 arch/arm/cpu/armv7/start.o
 .rel.text.parse_sliteral
                0x000000008085baf4        0x8 arch/arm/cpu/armv7/start.o
 .rel.text.parse_integer
                0x000000008085bafc        0x8 arch/arm/cpu/armv7/start.o
 .rel.text.do_get_any
                0x000000008085bb04       0x10 arch/arm/cpu/armv7/start.o
 .rel.text.do_get_fat
                0x000000008085bb14       0x10 arch/arm/cpu/armv7/start.o
 .rel.text.do_get_ext2
                0x000000008085bb24       0x10 arch/arm/cpu/armv7/start.o
 .rel.text.format_mac_pxe.constprop.6
                0x000000008085bb34       0x10 arch/arm/cpu/armv7/start.o
 .rel.text.get_relfile
                0x000000008085bb44       0x38 arch/arm/cpu/armv7/start.o
 .rel.text.get_pxe_file
                0x000000008085bb7c        0x8 arch/arm/cpu/armv7/start.o
 .rel.text.handle_include
                0x000000008085bb84       0x10 arch/arm/cpu/armv7/start.o
 .rel.text.parse_pxefile_top
                0x000000008085bb94      0x150 arch/arm/cpu/armv7/start.o
 .rel.text.get_pxelinux_path
                0x000000008085bce4       0x18 arch/arm/cpu/armv7/start.o
 .rel.text.do_pxe_get
                0x000000008085bcfc       0x48 arch/arm/cpu/armv7/start.o
 .rel.text.label_boot
                0x000000008085bd44      0x100 arch/arm/cpu/armv7/start.o
 .rel.text.handle_pxe_menu
                0x000000008085be44       0x18 arch/arm/cpu/armv7/start.o
 .rel.text.do_pxe_boot
                0x000000008085be5c       0x38 arch/arm/cpu/armv7/start.o
 .rel.text.do_sysboot
                0x000000008085be94       0x80 arch/arm/cpu/armv7/start.o
 .rel.text.do_time
                0x000000008085bf14       0x18 arch/arm/cpu/armv7/start.o
 .rel.text.do_test
                0x000000008085bf2c        0x8 arch/arm/cpu/armv7/start.o
 .rel.text.ubi_find_volume
                0x000000008085bf34       0x10 arch/arm/cpu/armv7/start.o
 .rel.text.ubi_volume_continue_write
                0x000000008085bf44       0x10 arch/arm/cpu/armv7/start.o
 .rel.text.ubi_volume_begin_write
                0x000000008085bf54       0x18 arch/arm/cpu/armv7/start.o
 .rel.text.ubi_volume_read
                0x000000008085bf6c       0x38 arch/arm/cpu/armv7/start.o
 .rel.text.ubi_part
                0x000000008085bfa4       0x78 arch/arm/cpu/armv7/start.o
 .rel.text.do_ubi
                0x000000008085c01c      0x180 arch/arm/cpu/armv7/start.o
 .rel.text.do_ubifs_mount
                0x000000008085c19c       0x10 arch/arm/cpu/armv7/start.o
 .rel.text.do_ubifs_ls
                0x000000008085c1ac       0x20 arch/arm/cpu/armv7/start.o
 .rel.text.do_ubifs_load
                0x000000008085c1cc       0x18 arch/arm/cpu/armv7/start.o
 .rel.text.ubifs_is_mounted
                0x000000008085c1e4        0x8 arch/arm/cpu/armv7/start.o
 .rel.text.cmd_ubifs_umount
                0x000000008085c1ec       0x10 arch/arm/cpu/armv7/start.o
 .rel.text.do_ubifs_umount
                0x000000008085c1fc       0x10 arch/arm/cpu/armv7/start.o
 .rel.text.usb_get_class_desc
                0x000000008085c20c       0x50 arch/arm/cpu/armv7/start.o
 .rel.text.usb_show_tree_graph
                0x000000008085c25c       0x48 arch/arm/cpu/armv7/start.o
 .rel.text.usb_display_class_sub
                0x000000008085c2a4       0x98 arch/arm/cpu/armv7/start.o
 .rel.text.usb_display_string
                0x000000008085c33c        0x8 arch/arm/cpu/armv7/start.o
 .rel.text.usb_display_config
                0x000000008085c344       0xa8 arch/arm/cpu/armv7/start.o
 .rel.text.do_usbboot
                0x000000008085c3ec        0x8 arch/arm/cpu/armv7/start.o
 .rel.text.usb_display_desc.part.1
                0x000000008085c3f4       0x38 arch/arm/cpu/armv7/start.o
 .rel.text.do_usb_start
                0x000000008085c42c        0x8 arch/arm/cpu/armv7/start.o
 .rel.text.do_usb
                0x000000008085c434      0x178 arch/arm/cpu/armv7/start.o
 .rel.text.do_imgextract
                0x000000008085c5ac       0xc8 arch/arm/cpu/armv7/start.o
 .rel.text.do_spl
                0x000000008085c674       0x48 arch/arm/cpu/armv7/start.o
 .rel.text.extract_val
                0x000000008085c6bc       0x10 arch/arm/cpu/armv7/start.o
 .rel.text.extract_env
                0x000000008085c6cc        0x8 arch/arm/cpu/armv7/start.o
 .rel.text.set_gpt_info.isra.1.constprop.2
                0x000000008085c6d4       0x48 arch/arm/cpu/armv7/start.o
 .rel.text.do_gpt
                0x000000008085c71c       0x68 arch/arm/cpu/armv7/start.o
 .rel.text.do_env_delete
                0x000000008085c784       0x10 arch/arm/cpu/armv7/start.o
 .rel.text.do_env_exists
                0x000000008085c794        0x8 arch/arm/cpu/armv7/start.o
 .rel.text.do_env
                0x000000008085c79c        0x8 arch/arm/cpu/armv7/start.o
 .rel.text.env_print
                0x000000008085c7a4       0x18 arch/arm/cpu/armv7/start.o
 .rel.text.do_env_print
                0x000000008085c7bc       0x10 arch/arm/cpu/armv7/start.o
 .rel.text.do_env_import
                0x000000008085c7cc       0x58 arch/arm/cpu/armv7/start.o
 .rel.text.do_env_default
                0x000000008085c824        0x8 arch/arm/cpu/armv7/start.o
 .rel.text._do_env_set.isra.0
                0x000000008085c82c       0x30 arch/arm/cpu/armv7/start.o
 .rel.text.do_env_ask
                0x000000008085c85c       0x10 arch/arm/cpu/armv7/start.o
 .rel.text.get_env_id
                0x000000008085c86c        0x8 arch/arm/cpu/armv7/start.o
 .rel.text.setenv
                0x000000008085c874        0x8 arch/arm/cpu/armv7/start.o
 .rel.text.setenv_hex
                0x000000008085c87c        0x8 arch/arm/cpu/armv7/start.o
 .rel.text.do_env_export
                0x000000008085c884       0x40 arch/arm/cpu/armv7/start.o
 .rel.text.getenv_f
                0x000000008085c8c4        0x8 arch/arm/cpu/armv7/start.o
 .rel.text.getenv
                0x000000008085c8cc        0x8 arch/arm/cpu/armv7/start.o
 .rel.text.do_env_edit.part.2
                0x000000008085c8d4       0x18 arch/arm/cpu/armv7/start.o
 .rel.text.common_diskboot
                0x000000008085c8ec       0x38 arch/arm/cpu/armv7/start.o
 .rel.rodata.op_table
                0x000000008085c924       0x68 arch/arm/cpu/armv7/start.o
 .rel.rodata.reg_4_desc_tbl
                0x000000008085c98c       0x60 arch/arm/cpu/armv7/start.o
 .rel.rodata.desc_and_len_tbl
                0x000000008085c9ec       0x30 arch/arm/cpu/armv7/start.o
 .rel.rodata.reg_5_desc_tbl
                0x000000008085ca1c       0x60 arch/arm/cpu/armv7/start.o
 .rel.rodata.reg_2_desc_tbl
                0x000000008085ca7c        0x8 arch/arm/cpu/armv7/start.o
 .rel.rodata.reg_0_5_desc_tbl
                0x000000008085ca84       0x30 arch/arm/cpu/armv7/start.o
 .rel.rodata.reg_3_desc_tbl
                0x000000008085cab4       0x18 arch/arm/cpu/armv7/start.o
 .rel.rodata.reg_0_desc_tbl
                0x000000008085cacc       0x50 arch/arm/cpu/armv7/start.o
 .rel.rodata.reg_1_desc_tbl
                0x000000008085cb1c       0x80 arch/arm/cpu/armv7/start.o
 .rel.rodata.keywords
                0x000000008085cb9c       0x90 arch/arm/cpu/armv7/start.o
 .rel.rodata.op_adv
                0x000000008085cc2c       0x80 arch/arm/cpu/armv7/start.o
 .rel.rodata.CSWTCH.31
                0x000000008085ccac       0x28 arch/arm/cpu/armv7/start.o
 .rel.rodata.subcmd_list
                0x000000008085ccd4       0x10 arch/arm/cpu/armv7/start.o
 .rel.u_boot_list_2_cmd_2_go
                0x000000008085cce4       0x20 arch/arm/cpu/armv7/start.o
 .rel.u_boot_list_2_cmd_2_reset
                0x000000008085cd04       0x20 arch/arm/cpu/armv7/start.o
 .rel.u_boot_list_2_cmd_2_iminfo
                0x000000008085cd24       0x20 arch/arm/cpu/armv7/start.o
 .rel.u_boot_list_2_cmd_2_bootz
                0x000000008085cd44       0x20 arch/arm/cpu/armv7/start.o
 .rel.u_boot_list_2_cmd_2_boot
                0x000000008085cd64       0x20 arch/arm/cpu/armv7/start.o
 .rel.u_boot_list_2_cmd_2_bootd
                0x000000008085cd84       0x20 arch/arm/cpu/armv7/start.o
 .rel.u_boot_list_2_cmd_2_bootm
                0x000000008085cda4       0x20 arch/arm/cpu/armv7/start.o
 .rel.data.cmd_bootm_sub
                0x000000008085cdc4       0xd8 arch/arm/cpu/armv7/start.o
 .rel.u_boot_list_2_cmd_2_question_mark
                0x000000008085ce9c       0x20 arch/arm/cpu/armv7/start.o
 .rel.u_boot_list_2_cmd_2_help
                0x000000008085cebc       0x20 arch/arm/cpu/armv7/start.o
 .rel.u_boot_list_2_cmd_2_version
                0x000000008085cedc       0x20 arch/arm/cpu/armv7/start.o
 .rel.u_boot_list_2_cmd_2_source
                0x000000008085cefc       0x20 arch/arm/cpu/armv7/start.o
 .rel.u_boot_list_2_cmd_2_bdinfo
                0x000000008085cf1c       0x20 arch/arm/cpu/armv7/start.o
 .rel.data.loaded_image_info_obj
                0x000000008085cf3c       0x28 arch/arm/cpu/armv7/start.o
 .rel.u_boot_list_2_cmd_2_bootefi
                0x000000008085cf64       0x20 arch/arm/cpu/armv7/start.o
 .rel.data.bootefi_device_obj
                0x000000008085cf84       0x18 arch/arm/cpu/armv7/start.o
 .rel.data.loaded_image_info
                0x000000008085cf9c       0x10 arch/arm/cpu/armv7/start.o
 .rel.u_boot_list_2_cmd_2_coninfo
                0x000000008085cfac       0x20 arch/arm/cpu/armv7/start.o
 .rel.u_boot_list_2_cmd_2_echo
                0x000000008085cfcc       0x20 arch/arm/cpu/armv7/start.o
 .rel.u_boot_list_2_cmd_2_eeprom
                0x000000008085cfec       0x20 arch/arm/cpu/armv7/start.o
 .rel.u_boot_list_2_cmd_2_bootelf
                0x000000008085d00c       0x20 arch/arm/cpu/armv7/start.o
 .rel.u_boot_list_2_cmd_2_bootvx
                0x000000008085d02c       0x20 arch/arm/cpu/armv7/start.o
 .rel.u_boot_list_2_cmd_2_exit
                0x000000008085d04c       0x20 arch/arm/cpu/armv7/start.o
 .rel.u_boot_list_2_cmd_2_ext4load
                0x000000008085d06c       0x20 arch/arm/cpu/armv7/start.o
 .rel.u_boot_list_2_cmd_2_ext4write
                0x000000008085d08c       0x20 arch/arm/cpu/armv7/start.o
 .rel.u_boot_list_2_cmd_2_ext4ls
                0x000000008085d0ac       0x20 arch/arm/cpu/armv7/start.o
 .rel.u_boot_list_2_cmd_2_ext4size
                0x000000008085d0cc       0x20 arch/arm/cpu/armv7/start.o
 .rel.u_boot_list_2_cmd_2_ext2ls
                0x000000008085d0ec       0x20 arch/arm/cpu/armv7/start.o
 .rel.u_boot_list_2_cmd_2_ext2load
                0x000000008085d10c       0x20 arch/arm/cpu/armv7/start.o
 .rel.u_boot_list_2_cmd_2_fatinfo
                0x000000008085d12c       0x20 arch/arm/cpu/armv7/start.o
 .rel.u_boot_list_2_cmd_2_fatwrite
                0x000000008085d14c       0x20 arch/arm/cpu/armv7/start.o
 .rel.u_boot_list_2_cmd_2_fatload
                0x000000008085d16c       0x20 arch/arm/cpu/armv7/start.o
 .rel.u_boot_list_2_cmd_2_fatls
                0x000000008085d18c       0x20 arch/arm/cpu/armv7/start.o
 .rel.u_boot_list_2_cmd_2_fatsize
                0x000000008085d1ac       0x20 arch/arm/cpu/armv7/start.o
 .rel.u_boot_list_2_cmd_2_fdt
                0x000000008085d1cc       0x20 arch/arm/cpu/armv7/start.o
 .rel.u_boot_list_2_cmd_2_save
                0x000000008085d1ec       0x20 arch/arm/cpu/armv7/start.o
 .rel.u_boot_list_2_cmd_2_ls
                0x000000008085d20c       0x20 arch/arm/cpu/armv7/start.o
 .rel.u_boot_list_2_cmd_2_fstype
                0x000000008085d22c       0x20 arch/arm/cpu/armv7/start.o
 .rel.u_boot_list_2_cmd_2_size
                0x000000008085d24c       0x20 arch/arm/cpu/armv7/start.o
 .rel.u_boot_list_2_cmd_2_load
                0x000000008085d26c       0x20 arch/arm/cpu/armv7/start.o
 .rel.u_boot_list_2_cmd_2_gpio
                0x000000008085d28c       0x20 arch/arm/cpu/armv7/start.o
 .rel.data.cmd_i2c_sub
                0x000000008085d2ac      0x1a0 arch/arm/cpu/armv7/start.o
 .rel.u_boot_list_2_cmd_2_i2c
                0x000000008085d44c       0x20 arch/arm/cpu/armv7/start.o
 .rel.u_boot_list_2_cmd_2_itest
                0x000000008085d46c       0x20 arch/arm/cpu/armv7/start.o
 .rel.u_boot_list_2_cmd_2_loadb
                0x000000008085d48c       0x20 arch/arm/cpu/armv7/start.o
 .rel.u_boot_list_2_cmd_2_loads
                0x000000008085d4ac       0x20 arch/arm/cpu/armv7/start.o
 .rel.u_boot_list_2_cmd_2_loadx
                0x000000008085d4cc       0x20 arch/arm/cpu/armv7/start.o
 .rel.u_boot_list_2_cmd_2_loady
                0x000000008085d4ec       0x20 arch/arm/cpu/armv7/start.o
 .rel.u_boot_list_2_cmd_2_base
                0x000000008085d50c       0x20 arch/arm/cpu/armv7/start.o
 .rel.u_boot_list_2_cmd_2_cmp
                0x000000008085d52c       0x20 arch/arm/cpu/armv7/start.o
 .rel.u_boot_list_2_cmd_2_nm
                0x000000008085d54c       0x20 arch/arm/cpu/armv7/start.o
 .rel.u_boot_list_2_cmd_2_loop
                0x000000008085d56c       0x20 arch/arm/cpu/armv7/start.o
 .rel.u_boot_list_2_cmd_2_cp
                0x000000008085d58c       0x20 arch/arm/cpu/armv7/start.o
 .rel.u_boot_list_2_cmd_2_mm
                0x000000008085d5ac       0x20 arch/arm/cpu/armv7/start.o
 .rel.u_boot_list_2_cmd_2_crc32
                0x000000008085d5cc       0x20 arch/arm/cpu/armv7/start.o
 .rel.u_boot_list_2_cmd_2_md
                0x000000008085d5ec       0x20 arch/arm/cpu/armv7/start.o
 .rel.u_boot_list_2_cmd_2_mw
                0x000000008085d60c       0x20 arch/arm/cpu/armv7/start.o
 .rel.u_boot_list_2_cmd_2_mii
                0x000000008085d62c       0x20 arch/arm/cpu/armv7/start.o
 .rel.u_boot_list_2_cmd_2_mdio
                0x000000008085d64c       0x20 arch/arm/cpu/armv7/start.o
 .rel.u_boot_list_2_cmd_2_sleep
                0x000000008085d66c       0x20 arch/arm/cpu/armv7/start.o
 .rel.u_boot_list_2_cmd_2_mmcinfo
                0x000000008085d68c       0x20 arch/arm/cpu/armv7/start.o
 .rel.data.cmd_mmc
                0x000000008085d6ac      0x1c0 arch/arm/cpu/armv7/start.o
 .rel.u_boot_list_2_cmd_2_mmc
                0x000000008085d86c       0x20 arch/arm/cpu/armv7/start.o
 .rel.u_boot_list_2_cmd_2_mtdparts
                0x000000008085d88c       0x20 arch/arm/cpu/armv7/start.o
 .rel.u_boot_list_2_cmd_2_chpart
                0x000000008085d8ac       0x20 arch/arm/cpu/armv7/start.o
 .rel.u_boot_list_2_cmd_2_ping
                0x000000008085d8cc       0x20 arch/arm/cpu/armv7/start.o
 .rel.u_boot_list_2_cmd_2_dhcp
                0x000000008085d8ec       0x20 arch/arm/cpu/armv7/start.o
 .rel.u_boot_list_2_cmd_2_bootp
                0x000000008085d90c       0x20 arch/arm/cpu/armv7/start.o
 .rel.u_boot_list_2_cmd_2_tftpboot
                0x000000008085d92c       0x20 arch/arm/cpu/armv7/start.o
 .rel.u_boot_list_2_cmd_2_nfs
                0x000000008085d94c       0x20 arch/arm/cpu/armv7/start.o
 .rel.u_boot_list_2_cmd_2_part
                0x000000008085d96c       0x20 arch/arm/cpu/armv7/start.o
 .rel.u_boot_list_2_cmd_2_pxe
                0x000000008085d98c       0x20 arch/arm/cpu/armv7/start.o
 .rel.data.cmd_pxe_sub
                0x000000008085d9ac       0x40 arch/arm/cpu/armv7/start.o
 .rel.u_boot_list_2_cmd_2_sysboot
                0x000000008085d9ec       0x20 arch/arm/cpu/armv7/start.o
 .rel.data.pxe_default_paths
                0x000000008085da0c       0x18 arch/arm/cpu/armv7/start.o
 .rel.u_boot_list_2_cmd_2_time
                0x000000008085da24       0x20 arch/arm/cpu/armv7/start.o
 .rel.u_boot_list_2_cmd_2_test
                0x000000008085da44       0x20 arch/arm/cpu/armv7/start.o
 .rel.u_boot_list_2_cmd_2_true
                0x000000008085da64       0x18 arch/arm/cpu/armv7/start.o
 .rel.u_boot_list_2_cmd_2_false
                0x000000008085da7c       0x18 arch/arm/cpu/armv7/start.o
 .rel.u_boot_list_2_cmd_2_ubi
                0x000000008085da94       0x20 arch/arm/cpu/armv7/start.o
 .rel.u_boot_list_2_cmd_2_ubifsumount
                0x000000008085dab4       0x20 arch/arm/cpu/armv7/start.o
 .rel.u_boot_list_2_cmd_2_ubifsload
                0x000000008085dad4       0x20 arch/arm/cpu/armv7/start.o
 .rel.u_boot_list_2_cmd_2_ubifsls
                0x000000008085daf4       0x20 arch/arm/cpu/armv7/start.o
 .rel.u_boot_list_2_cmd_2_ubifsmount
                0x000000008085db14       0x20 arch/arm/cpu/armv7/start.o
 .rel.u_boot_list_2_cmd_2_usb
                0x000000008085db34       0x20 arch/arm/cpu/armv7/start.o
 .rel.u_boot_list_2_cmd_2_usbboot
                0x000000008085db54       0x20 arch/arm/cpu/armv7/start.o
 .rel.u_boot_list_2_cmd_2_imxtract
                0x000000008085db74       0x20 arch/arm/cpu/armv7/start.o
 .rel.data.cmd_spl_export_sub
                0x000000008085db94       0x30 arch/arm/cpu/armv7/start.o
 .rel.data.__compound_literal.0
                0x000000008085dbc4       0x38 arch/arm/cpu/armv7/start.o
 .rel.data.__compound_literal.1
                0x000000008085dbfc       0x30 arch/arm/cpu/armv7/start.o
 .rel.data.cmd_spl_sub
                0x000000008085dc2c       0x18 arch/arm/cpu/armv7/start.o
 .rel.u_boot_list_2_cmd_2_spl
                0x000000008085dc44       0x20 arch/arm/cpu/armv7/start.o
 .rel.u_boot_list_2_cmd_2_gpt
                0x000000008085dc64       0x20 arch/arm/cpu/armv7/start.o
 .rel.u_boot_list_2_cmd_2_setenv
                0x000000008085dc84       0x28 arch/arm/cpu/armv7/start.o
 .rel.u_boot_list_2_cmd_2_askenv
                0x000000008085dcac       0x20 arch/arm/cpu/armv7/start.o
 .rel.u_boot_list_2_cmd_2_env
                0x000000008085dccc       0x20 arch/arm/cpu/armv7/start.o
 .rel.data.cmd_env_sub
                0x000000008085dcec      0x140 arch/arm/cpu/armv7/start.o
 .rel.u_boot_list_2_cmd_2_printenv
                0x000000008085de2c       0x28 arch/arm/cpu/armv7/start.o
 .rel.u_boot_list_2_cmd_2_editenv
                0x000000008085de54       0x28 arch/arm/cpu/armv7/start.o
 .rel.u_boot_list_2_cmd_2_run
                0x000000008085de7c       0x28 arch/arm/cpu/armv7/start.o
 .rel.text.main_loop
                0x000000008085dea4       0x18 arch/arm/cpu/armv7/start.o
 .rel.text.jumptable_init
                0x000000008085debc       0xc8 arch/arm/cpu/armv7/start.o
 .rel.text.hash_lookup_algo
                0x000000008085df84        0x8 arch/arm/cpu/armv7/start.o
 .rel.text.hash_progressive_lookup_algo
                0x000000008085df8c        0x0 arch/arm/cpu/armv7/start.o
 .rel.text.hash_command
                0x000000008085df8c       0x28 arch/arm/cpu/armv7/start.o
 .rel.text.mapset
                0x000000008085dfb4        0x8 arch/arm/cpu/armv7/start.o
 .rel.text.syntax_err
                0x000000008085dfbc        0x8 arch/arm/cpu/armv7/start.o
 .rel.text.xmalloc
                0x000000008085dfc4        0x8 arch/arm/cpu/armv7/start.o
 .rel.text.xrealloc
                0x000000008085dfcc        0x8 arch/arm/cpu/armv7/start.o
 .rel.text.done_word
                0x000000008085dfd4        0x8 arch/arm/cpu/armv7/start.o
 .rel.text.do_showvar
                0x000000008085dfdc       0x20 arch/arm/cpu/armv7/start.o
 .rel.text.is_assignment
                0x000000008085dffc        0x8 arch/arm/cpu/armv7/start.o
 .rel.text.file_get
                0x000000008085e004       0x30 arch/arm/cpu/armv7/start.o
 .rel.text.b_addqchr
                0x000000008085e034        0x8 arch/arm/cpu/armv7/start.o
 .rel.text.get_local_var
                0x000000008085e03c       0x20 arch/arm/cpu/armv7/start.o
 .rel.text.set_local_var
                0x000000008085e05c       0x20 arch/arm/cpu/armv7/start.o
 .rel.text.insert_var_value_sub
                0x000000008085e07c        0x8 arch/arm/cpu/armv7/start.o
 .rel.text.unset_local_var
                0x000000008085e084        0x0 arch/arm/cpu/armv7/start.o
 .rel.text.parse_string_outer
                0x000000008085e084       0x18 arch/arm/cpu/armv7/start.o
 .rel.text.run_list_real
                0x000000008085e09c       0x48 arch/arm/cpu/armv7/start.o
 .rel.text.parse_stream_outer
                0x000000008085e0e4       0x68 arch/arm/cpu/armv7/start.o
 .rel.text.parse_file_outer
                0x000000008085e14c       0x10 arch/arm/cpu/armv7/start.o
 .rel.text.u_boot_hush_start
                0x000000008085e15c       0x18 arch/arm/cpu/armv7/start.o
 .rel.text.bootdelay_process
                0x000000008085e174       0x38 arch/arm/cpu/armv7/start.o
 .rel.text.autoboot_command
                0x000000008085e1ac       0x18 arch/arm/cpu/armv7/start.o
 .rel.text.setup_mon_len
                0x000000008085e1c4       0x10 arch/arm/cpu/armv7/start.o
 .rel.text.announce_dram_init
                0x000000008085e1d4        0x8 arch/arm/cpu/armv7/start.o
 .rel.text.init_func_watchdog_init
                0x000000008085e1dc        0x8 arch/arm/cpu/armv7/start.o
 .rel.text.init_func_i2c
                0x000000008085e1e4       0x10 arch/arm/cpu/armv7/start.o
 .rel.text.init_baud_rate
                0x000000008085e1f4        0x8 arch/arm/cpu/armv7/start.o
 .rel.text.show_dram_config
                0x000000008085e1fc        0x8 arch/arm/cpu/armv7/start.o
 .rel.text.board_init_f
                0x000000008085e204        0x8 arch/arm/cpu/armv7/start.o
 .rel.text.initr_net
                0x000000008085e20c        0x8 arch/arm/cpu/armv7/start.o
 .rel.text.initr_ethaddr
                0x000000008085e214        0x8 arch/arm/cpu/armv7/start.o
 .rel.text.initr_env
                0x000000008085e21c       0x10 arch/arm/cpu/armv7/start.o
 .rel.text.initr_mmc
                0x000000008085e22c        0x8 arch/arm/cpu/armv7/start.o
 .rel.text.initr_reloc_global_data
                0x000000008085e234       0x18 arch/arm/cpu/armv7/start.o
 .rel.text.board_init_r
                0x000000008085e24c        0x8 arch/arm/cpu/armv7/start.o
 .rel.text.bootm_find_images
                0x000000008085e254       0x20 arch/arm/cpu/armv7/start.o
 .rel.text.bootm_decomp_image
                0x000000008085e274       0x48 arch/arm/cpu/armv7/start.o
 .rel.text.do_bootm_states
                0x000000008085e2bc       0xf8 arch/arm/cpu/armv7/start.o
 .rel.text.do_bootm_rtems
                0x000000008085e3b4       0x20 arch/arm/cpu/armv7/start.o
 .rel.text.do_bootm_plan9
                0x000000008085e3d4       0x30 arch/arm/cpu/armv7/start.o
 .rel.text.do_bootm_standalone
                0x000000008085e404       0x18 arch/arm/cpu/armv7/start.o
 .rel.text.do_bootm_qnxelf
                0x000000008085e41c       0x20 arch/arm/cpu/armv7/start.o
 .rel.text.do_bootm_netbsd
                0x000000008085e43c       0x30 arch/arm/cpu/armv7/start.o
 .rel.text.do_bootvx_fdt
                0x000000008085e46c       0x38 arch/arm/cpu/armv7/start.o
 .rel.text.do_bootm_vxworks
                0x000000008085e4a4       0x18 arch/arm/cpu/armv7/start.o
 .rel.text.bootm_os_get_boot_func
                0x000000008085e4bc        0x8 arch/arm/cpu/armv7/start.o
 .rel.text.regex_callback
                0x000000008085e4c4       0x10 arch/arm/cpu/armv7/start.o
 .rel.text.env_attr_lookup
                0x000000008085e4d4        0x8 arch/arm/cpu/armv7/start.o
 .rel.text.find_env_callback
                0x000000008085e4dc       0x10 arch/arm/cpu/armv7/start.o
 .rel.text.on_callbacks
                0x000000008085e4ec       0x20 arch/arm/cpu/armv7/start.o
 .rel.text.set_callback
                0x000000008085e50c        0x8 arch/arm/cpu/armv7/start.o
 .rel.text.env_callback_init
                0x000000008085e514       0x20 arch/arm/cpu/armv7/start.o
 .rel.text.skip_num
                0x000000008085e534        0x8 arch/arm/cpu/armv7/start.o
 .rel.text.on_flags
                0x000000008085e53c       0x20 arch/arm/cpu/armv7/start.o
 .rel.text.env_flags_parse_vartype
                0x000000008085e55c       0x10 arch/arm/cpu/armv7/start.o
 .rel.text.env_flags_parse_varaccess
                0x000000008085e56c       0x10 arch/arm/cpu/armv7/start.o
 .rel.text.set_flags
                0x000000008085e57c       0x10 arch/arm/cpu/armv7/start.o
 .rel.text.env_flags_parse_varaccess_from_binflags
                0x000000008085e58c        0x0 arch/arm/cpu/armv7/start.o
 .rel.text.env_flags_init
                0x000000008085e58c       0x30 arch/arm/cpu/armv7/start.o
 .rel.text.env_flags_validate
                0x000000008085e5bc       0x38 arch/arm/cpu/armv7/start.o
 .rel.text.env_init
                0x000000008085e5f4        0x8 arch/arm/cpu/armv7/start.o
 .rel.text.of_bus_default_count_cells
                0x000000008085e5fc        0x0 arch/arm/cpu/armv7/start.o
 .rel.text.fdt_find_or_add_subnode
                0x000000008085e5fc       0x10 arch/arm/cpu/armv7/start.o
 .rel.text.fdt_root
                0x000000008085e60c       0x20 arch/arm/cpu/armv7/start.o
 .rel.text.fdt_initrd
                0x000000008085e62c       0x30 arch/arm/cpu/armv7/start.o
 .rel.text.fdt_chosen
                0x000000008085e65c       0x20 arch/arm/cpu/armv7/start.o
 .rel.text.do_fixup_by_path
                0x000000008085e67c        0x8 arch/arm/cpu/armv7/start.o
 .rel.text.fdt_fixup_memory_banks
                0x000000008085e684       0x38 arch/arm/cpu/armv7/start.o
 .rel.text.fdt_fixup_ethernet
                0x000000008085e6bc       0x30 arch/arm/cpu/armv7/start.o
 .rel.text.fdt_del_node_and_alias
                0x000000008085e6ec        0x0 arch/arm/cpu/armv7/start.o
 .rel.text.fdt_translate_address
                0x000000008085e6ec        0x0 arch/arm/cpu/armv7/start.o
 .rel.text.fdt_node_offset_by_compat_reg
                0x000000008085e6ec        0x0 arch/arm/cpu/armv7/start.o
 .rel.text.fdt_set_phandle
                0x000000008085e6ec        0x0 arch/arm/cpu/armv7/start.o
 .rel.text.fdt_create_phandle
                0x000000008085e6ec        0x0 arch/arm/cpu/armv7/start.o
 .rel.text.fdt_set_node_status
                0x000000008085e6ec        0x0 arch/arm/cpu/armv7/start.o
 .rel.text.fdt_verify_alias_address
                0x000000008085e6ec        0x0 arch/arm/cpu/armv7/start.o
 .rel.text.fdt_get_base_address
                0x000000008085e6ec        0x0 arch/arm/cpu/armv7/start.o
 .rel.text.fdt_read_range
                0x000000008085e6ec        0x0 arch/arm/cpu/armv7/start.o
 .rel.text.fdt_setup_simplefb_node
                0x000000008085e6ec        0x0 arch/arm/cpu/armv7/start.o
 .rel.text.fdt_fixup_display
                0x000000008085e6ec        0x0 arch/arm/cpu/armv7/start.o
 .rel.text.miiphy_get_dev_by_name
                0x000000008085e6ec       0x10 arch/arm/cpu/armv7/start.o
 .rel.text.miiphy_init
                0x000000008085e6fc       0x10 arch/arm/cpu/armv7/start.o
 .rel.text.miiphy_register
                0x000000008085e70c        0x0 arch/arm/cpu/armv7/start.o
 .rel.text.mdio_register
                0x000000008085e70c       0x18 arch/arm/cpu/armv7/start.o
 .rel.text.mdio_unregister
                0x000000008085e724        0x0 arch/arm/cpu/armv7/start.o
 .rel.text.mdio_list_devices
                0x000000008085e724       0x28 arch/arm/cpu/armv7/start.o
 .rel.text.miiphy_set_current_dev
                0x000000008085e74c       0x10 arch/arm/cpu/armv7/start.o
 .rel.text.miiphy_get_active_dev
                0x000000008085e75c        0x8 arch/arm/cpu/armv7/start.o
 .rel.text.mdio_get_current_dev
                0x000000008085e764        0x8 arch/arm/cpu/armv7/start.o
 .rel.text.mdio_phydev_for_ethname
                0x000000008085e76c       0x10 arch/arm/cpu/armv7/start.o
 .rel.text.miiphy_get_current_dev
                0x000000008085e77c        0x8 arch/arm/cpu/armv7/start.o
 .rel.text.miiphy_listdev
                0x000000008085e784       0x30 arch/arm/cpu/armv7/start.o
 .rel.text.miiphy_is_1000base_x
                0x000000008085e7b4        0x8 arch/arm/cpu/armv7/start.o
 .rel.text.miiphy_speed
                0x000000008085e7bc       0x20 arch/arm/cpu/armv7/start.o
 .rel.text.miiphy_duplex
                0x000000008085e7dc       0x28 arch/arm/cpu/armv7/start.o
 .rel.text.usb_stop
                0x000000008085e804       0x18 arch/arm/cpu/armv7/start.o
 .rel.text.usb_detect_change
                0x000000008085e81c        0x0 arch/arm/cpu/armv7/start.o
 .rel.text.usb_disable_asynch
                0x000000008085e81c        0x8 arch/arm/cpu/armv7/start.o
 .rel.text.usb_control_msg
                0x000000008085e824        0x8 arch/arm/cpu/armv7/start.o
 .rel.text.get_descriptor_len
                0x000000008085e82c       0x10 arch/arm/cpu/armv7/start.o
 .rel.text.usb_string_sub
                0x000000008085e83c        0x8 arch/arm/cpu/armv7/start.o
 .rel.text.usb_get_configuration_len
                0x000000008085e844       0x10 arch/arm/cpu/armv7/start.o
 .rel.text.usb_set_interface
                0x000000008085e854        0x8 arch/arm/cpu/armv7/start.o
 .rel.text.usb_get_dev_index
                0x000000008085e85c        0x8 arch/arm/cpu/armv7/start.o
 .rel.text.usb_alloc_new_device
                0x000000008085e864       0x18 arch/arm/cpu/armv7/start.o
 .rel.text.usb_free_device
                0x000000008085e87c       0x10 arch/arm/cpu/armv7/start.o
 .rel.text.usb_select_config
                0x000000008085e88c       0x70 arch/arm/cpu/armv7/start.o
 .rel.text.usb_setup_device
                0x000000008085e8fc       0x18 arch/arm/cpu/armv7/start.o
 .rel.text.usb_init
                0x000000008085e914       0x58 arch/arm/cpu/armv7/start.o
 .rel.text.usb_find_usb2_hub_address_port
                0x000000008085e96c        0x8 arch/arm/cpu/armv7/start.o
 .rel.text.usb_hub_reset
                0x000000008085e974       0x10 arch/arm/cpu/armv7/start.o
 .rel.text.usb_hub_port_connect_change
                0x000000008085e984       0x10 arch/arm/cpu/armv7/start.o
 .rel.text.usb_hub_configure
                0x000000008085e994       0x40 arch/arm/cpu/armv7/start.o
 .rel.text.usb_stor_BBB_transport
                0x000000008085e9d4       0x10 arch/arm/cpu/armv7/start.o
 .rel.text.usb_stor_CB_comdat
                0x000000008085e9e4        0x8 arch/arm/cpu/armv7/start.o
 .rel.text.usb_stor_CBI_get_status.isra.4
                0x000000008085e9ec        0x8 arch/arm/cpu/armv7/start.o
 .rel.text.usb_stor_CB_transport
                0x000000008085e9f4       0x10 arch/arm/cpu/armv7/start.o
 .rel.text.usb_request_sense.constprop.10
                0x000000008085ea04        0x8 arch/arm/cpu/armv7/start.o
 .rel.text.usb_stor_read
                0x000000008085ea0c       0x10 arch/arm/cpu/armv7/start.o
 .rel.text.usb_stor_write
                0x000000008085ea1c       0x10 arch/arm/cpu/armv7/start.o
 .rel.text.usb_stor_get_dev
                0x000000008085ea2c       0x10 arch/arm/cpu/armv7/start.o
 .rel.text.usb_stor_info
                0x000000008085ea3c       0x20 arch/arm/cpu/armv7/start.o
 .rel.text.usb_stor_reset
                0x000000008085ea5c        0x0 arch/arm/cpu/armv7/start.o
 .rel.text.usb_storage_probe
                0x000000008085ea5c       0x38 arch/arm/cpu/armv7/start.o
 .rel.text.usb_stor_get_info
                0x000000008085ea94       0x20 arch/arm/cpu/armv7/start.o
 .rel.text.usb_stor_scan
                0x000000008085eab4       0x40 arch/arm/cpu/armv7/start.o
 .rel.text.menu_get_choice
                0x000000008085eaf4       0x18 arch/arm/cpu/armv7/start.o
 .rel.text.env_get_addr
                0x000000008085eb0c        0x8 arch/arm/cpu/armv7/start.o
 .rel.text.env_get_char
                0x000000008085eb14        0x8 arch/arm/cpu/armv7/start.o
 .rel.text.set_default_env
                0x000000008085eb1c       0x40 arch/arm/cpu/armv7/start.o
 .rel.text.set_default_vars
                0x000000008085eb5c       0x10 arch/arm/cpu/armv7/start.o
 .rel.text.env_import
                0x000000008085eb6c        0x0 arch/arm/cpu/armv7/start.o
 .rel.text.env_export
                0x000000008085eb6c        0x0 arch/arm/cpu/armv7/start.o
 .rel.text.env_complete
                0x000000008085eb6c       0x18 arch/arm/cpu/armv7/start.o
 .rel.text.console_setfile
                0x000000008085eb84       0x30 arch/arm/cpu/armv7/start.o
 .rel.text.putc
                0x000000008085ebb4        0x8 arch/arm/cpu/armv7/start.o
 .rel.text.puts
                0x000000008085ebbc        0x8 arch/arm/cpu/armv7/start.o
 .rel.text.fgetc
                0x000000008085ebc4        0x8 arch/arm/cpu/armv7/start.o
 .rel.text.ftstc
                0x000000008085ebcc        0x8 arch/arm/cpu/armv7/start.o
 .rel.text.fputc
                0x000000008085ebd4        0x0 arch/arm/cpu/armv7/start.o
 .rel.text.fputs
                0x000000008085ebd4        0x0 arch/arm/cpu/armv7/start.o
 .rel.text.ctrlc
                0x000000008085ebd4       0x10 arch/arm/cpu/armv7/start.o
 .rel.text.confirm_yesno
                0x000000008085ebe4        0x0 arch/arm/cpu/armv7/start.o
 .rel.text.disable_ctrlc
                0x000000008085ebe4        0x0 arch/arm/cpu/armv7/start.o
 .rel.text.had_ctrlc
                0x000000008085ebe4        0x8 arch/arm/cpu/armv7/start.o
 .rel.text.clear_ctrlc
                0x000000008085ebec        0x8 arch/arm/cpu/armv7/start.o
 .rel.text.on_console
                0x000000008085ebf4       0x20 arch/arm/cpu/armv7/start.o
 .rel.text.stdio_print_current_devices
                0x000000008085ec14        0x0 arch/arm/cpu/armv7/start.o
 .rel.text.console_init_r
                0x000000008085ec14       0x10 arch/arm/cpu/armv7/start.o
 .rel.text.sbrk
                0x000000008085ec24       0x18 arch/arm/cpu/armv7/start.o
 .rel.text.mem_malloc_init
                0x000000008085ec3c       0x18 arch/arm/cpu/armv7/start.o
 .rel.text.malloc_trim
                0x000000008085ec54       0x18 arch/arm/cpu/armv7/start.o
 .rel.text.free
                0x000000008085ec6c       0x20 arch/arm/cpu/armv7/start.o
 .rel.text.malloc
                0x000000008085ec8c       0x48 arch/arm/cpu/armv7/start.o
 .rel.text.calloc
                0x000000008085ecd4        0x8 arch/arm/cpu/armv7/start.o
 .rel.text.realloc
                0x000000008085ecdc       0x10 arch/arm/cpu/armv7/start.o
 .rel.text.mallopt
                0x000000008085ecec        0x0 arch/arm/cpu/armv7/start.o
 .rel.text.on_loadaddr
                0x000000008085ecec        0x8 arch/arm/cpu/armv7/start.o
 .rel.text.getenv_bootm_low
                0x000000008085ecf4        0x8 arch/arm/cpu/armv7/start.o
 .rel.text.getenv_bootm_size
                0x000000008085ecfc       0x10 arch/arm/cpu/armv7/start.o
 .rel.text.getenv_bootm_mapsize
                0x000000008085ed0c        0x8 arch/arm/cpu/armv7/start.o
 .rel.text.genimg_print_size
                0x000000008085ed14       0x10 arch/arm/cpu/armv7/start.o
 .rel.text.genimg_get_short_name
                0x000000008085ed24        0x0 arch/arm/cpu/armv7/start.o
 .rel.text.genimg_get_os_name
                0x000000008085ed24       0x10 arch/arm/cpu/armv7/start.o
 .rel.text.genimg_get_arch_name
                0x000000008085ed34       0x10 arch/arm/cpu/armv7/start.o
 .rel.text.genimg_get_type_name
                0x000000008085ed44       0x10 arch/arm/cpu/armv7/start.o
 .rel.text.genimg_get_type_short_name
                0x000000008085ed54        0x0 arch/arm/cpu/armv7/start.o
 .rel.text.genimg_get_comp_name
                0x000000008085ed54       0x10 arch/arm/cpu/armv7/start.o
 .rel.text.image_print_contents
                0x000000008085ed64       0x50 arch/arm/cpu/armv7/start.o
 .rel.text.genimg_get_comp_short_name
                0x000000008085edb4        0x0 arch/arm/cpu/armv7/start.o
 .rel.text.genimg_get_os_short_name
                0x000000008085edb4        0x0 arch/arm/cpu/armv7/start.o
 .rel.text.genimg_get_arch_short_name
                0x000000008085edb4        0x0 arch/arm/cpu/armv7/start.o
 .rel.text.genimg_get_os_id
                0x000000008085edb4       0x10 arch/arm/cpu/armv7/start.o
 .rel.text.genimg_get_arch_id
                0x000000008085edc4       0x10 arch/arm/cpu/armv7/start.o
 .rel.text.genimg_get_type_id
                0x000000008085edd4       0x10 arch/arm/cpu/armv7/start.o
 .rel.text.genimg_get_comp_id
                0x000000008085ede4       0x10 arch/arm/cpu/armv7/start.o
 .rel.text.genimg_get_kernel_addr_fit
                0x000000008085edf4        0x8 arch/arm/cpu/armv7/start.o
 .rel.text.boot_get_ramdisk
                0x000000008085edfc       0x60 arch/arm/cpu/armv7/start.o
 .rel.text.boot_ramdisk_high
                0x000000008085ee5c       0x20 arch/arm/cpu/armv7/start.o
 .rel.text.boot_get_loadable
                0x000000008085ee7c       0x10 arch/arm/cpu/armv7/start.o
 .rel.text.fdt_error
                0x000000008085ee8c       0x10 arch/arm/cpu/armv7/start.o
 .rel.text.boot_fdt_add_mem_rsv_regions
                0x000000008085ee9c        0x8 arch/arm/cpu/armv7/start.o
 .rel.text.boot_relocate_fdt
                0x000000008085eea4       0x40 arch/arm/cpu/armv7/start.o
 .rel.text.boot_get_fdt
                0x000000008085eee4       0x90 arch/arm/cpu/armv7/start.o
 .rel.text.image_setup_libfdt
                0x000000008085ef74       0x28 arch/arm/cpu/armv7/start.o
 .rel.text.fit_image_get_address
                0x000000008085ef9c        0x8 arch/arm/cpu/armv7/start.o
 .rel.text.fit_get_desc
                0x000000008085efa4        0x8 arch/arm/cpu/armv7/start.o
 .rel.text.fit_get_timestamp
                0x000000008085efac        0x0 arch/arm/cpu/armv7/start.o
 .rel.text.fit_image_get_node
                0x000000008085efac        0x8 arch/arm/cpu/armv7/start.o
 .rel.text.fit_image_get_os
                0x000000008085efb4        0x8 arch/arm/cpu/armv7/start.o
 .rel.text.fit_image_get_arch
                0x000000008085efbc        0x8 arch/arm/cpu/armv7/start.o
 .rel.text.fit_image_get_type
                0x000000008085efc4        0x8 arch/arm/cpu/armv7/start.o
 .rel.text.fit_image_get_comp
                0x000000008085efcc        0x8 arch/arm/cpu/armv7/start.o
 .rel.text.fit_image_get_load
                0x000000008085efd4        0x8 arch/arm/cpu/armv7/start.o
 .rel.text.fit_image_get_entry
                0x000000008085efdc        0x8 arch/arm/cpu/armv7/start.o
 .rel.text.fit_image_get_data
                0x000000008085efe4        0x8 arch/arm/cpu/armv7/start.o
 .rel.text.fit_image_hash_get_algo
                0x000000008085efec        0x8 arch/arm/cpu/armv7/start.o
 .rel.text.fit_image_hash_get_value
                0x000000008085eff4        0x8 arch/arm/cpu/armv7/start.o
 .rel.text.fit_image_print_data
                0x000000008085effc       0x58 arch/arm/cpu/armv7/start.o
 .rel.text.fit_image_print
                0x000000008085f054       0x80 arch/arm/cpu/armv7/start.o
 .rel.text.fit_set_timestamp
                0x000000008085f0d4        0x0 arch/arm/cpu/armv7/start.o
 .rel.text.calculate_hash
                0x000000008085f0d4       0x20 arch/arm/cpu/armv7/start.o
 .rel.text.fit_image_verify
                0x000000008085f0f4       0x68 arch/arm/cpu/armv7/start.o
 .rel.text.fit_all_image_verify
                0x000000008085f15c       0x28 arch/arm/cpu/armv7/start.o
 .rel.text.fit_check_format
                0x000000008085f184       0x10 arch/arm/cpu/armv7/start.o
 .rel.text.fit_conf_find_compat
                0x000000008085f194        0x0 arch/arm/cpu/armv7/start.o
 .rel.text.fit_conf_get_node
                0x000000008085f194       0x10 arch/arm/cpu/armv7/start.o
 .rel.text.fit_conf_print
                0x000000008085f1a4       0x60 arch/arm/cpu/armv7/start.o
 .rel.text.fit_print_contents
                0x000000008085f204       0x58 arch/arm/cpu/armv7/start.o
 .rel.text.fit_image_load
                0x000000008085f25c       0xa0 arch/arm/cpu/armv7/start.o
 .rel.text.boot_get_setup_fit
                0x000000008085f2fc        0x8 arch/arm/cpu/armv7/start.o
 .rel.text.stdio_get_list
                0x000000008085f304        0x8 arch/arm/cpu/armv7/start.o
 .rel.text.stdio_get_by_name
                0x000000008085f30c        0x8 arch/arm/cpu/armv7/start.o
 .rel.text.stdio_register_dev
                0x000000008085f314        0x8 arch/arm/cpu/armv7/start.o
 .rel.text.stdio_init_tables
                0x000000008085f31c        0x8 arch/arm/cpu/armv7/start.o
 .rel.text.stdio_add_devices
                0x000000008085f324       0x28 arch/arm/cpu/armv7/start.o
 .rel.text.cli_simple_parse_line
                0x000000008085f34c        0x0 arch/arm/cpu/armv7/start.o
 .rel.text.cli_simple_run_command
                0x000000008085f34c        0x0 arch/arm/cpu/armv7/start.o
 .rel.text.cli_simple_loop
                0x000000008085f34c        0x0 arch/arm/cpu/armv7/start.o
 .rel.text.do_run
                0x000000008085f34c        0x8 arch/arm/cpu/armv7/start.o
 .rel.text.delete_char.part.0
                0x000000008085f354       0x10 arch/arm/cpu/armv7/start.o
 .rel.text.cread_add_char
                0x000000008085f364        0x8 arch/arm/cpu/armv7/start.o
 .rel.text.cli_readline_into_buffer
                0x000000008085f36c       0xb0 arch/arm/cpu/armv7/start.o
 .rel.text.cli_readline
                0x000000008085f41c        0x8 arch/arm/cpu/armv7/start.o
 .rel.text.find_cmd
                0x000000008085f424       0x10 arch/arm/cpu/armv7/start.o
 .rel.text.cmd_usage
                0x000000008085f434       0x18 arch/arm/cpu/armv7/start.o
 .rel.text._do_help
                0x000000008085f44c       0x10 arch/arm/cpu/armv7/start.o
 .rel.text.var_complete
                0x000000008085f45c       0x10 arch/arm/cpu/armv7/start.o
 .rel.text.cmd_auto_complete
                0x000000008085f46c       0x48 arch/arm/cpu/armv7/start.o
 .rel.text.cmd_get_data_size
                0x000000008085f4b4        0x8 arch/arm/cpu/armv7/start.o
 .rel.text.cmd_process
                0x000000008085f4bc       0x18 arch/arm/cpu/armv7/start.o
 .rel.text.cmd_process_error
                0x000000008085f4d4        0x8 arch/arm/cpu/armv7/start.o
 .rel.text.xyzModem_get_hdr
                0x000000008085f4dc       0x30 arch/arm/cpu/armv7/start.o
 .rel.text.xyzModem_stream_open
                0x000000008085f50c       0x10 arch/arm/cpu/armv7/start.o
 .rel.text.xyzModem_stream_read
                0x000000008085f51c        0x8 arch/arm/cpu/armv7/start.o
 .rel.text.xyzModem_stream_close
                0x000000008085f524       0x20 arch/arm/cpu/armv7/start.o
 .rel.text.xyzModem_stream_terminate
                0x000000008085f544        0x8 arch/arm/cpu/armv7/start.o
 .rel.text.xyzModem_error
                0x000000008085f54c       0x10 arch/arm/cpu/armv7/start.o
 .rel.rodata.boot_os
                0x000000008085f55c       0x38 arch/arm/cpu/armv7/start.o
 .rel.rodata.uimage_comp
                0x000000008085f594       0x70 arch/arm/cpu/armv7/start.o
 .rel.rodata.uimage_os
                0x000000008085f604       0x98 arch/arm/cpu/armv7/start.o
 .rel.rodata.uimage_arch
                0x000000008085f69c      0x188 arch/arm/cpu/armv7/start.o
 .rel.rodata.uimage_type
                0x000000008085f824      0x1a8 arch/arm/cpu/armv7/start.o
 .rel.rodata.CSWTCH.98
                0x000000008085f9cc       0xa8 arch/arm/cpu/armv7/start.o
 .rel.rodata.CSWTCH.28
                0x000000008085fa74       0x40 arch/arm/cpu/armv7/start.o
 .rel.data.hash_algo
                0x000000008085fab4       0x78 arch/arm/cpu/armv7/start.o
 .rel.data.reserved_list
                0x000000008085fb2c       0x58 arch/arm/cpu/armv7/start.o
 .rel.u_boot_list_2_cmd_2_showvar
                0x000000008085fb84       0x20 arch/arm/cpu/armv7/start.o
 .rel.data.init_sequence_f
                0x000000008085fba4      0x148 arch/arm/cpu/armv7/start.o
 .rel.data.init_sequence_r
                0x000000008085fcec      0x128 arch/arm/cpu/armv7/start.o
 .rel.u_boot_list_2_env_clbk_2_callbacks
                0x000000008085fe14       0x10 arch/arm/cpu/armv7/start.o
 .rel.u_boot_list_2_env_clbk_2_flags
                0x000000008085fe24       0x10 arch/arm/cpu/armv7/start.o
 .rel.data.of_busses
                0x000000008085fe34        0x0 arch/arm/cpu/armv7/start.o
 .rel.data.usb_scan_list
                0x000000008085fe34       0x10 arch/arm/cpu/armv7/start.o
 .rel.data.env_htab
                0x000000008085fe44        0x8 arch/arm/cpu/armv7/start.o
 .rel.u_boot_list_2_env_clbk_2_console
                0x000000008085fe4c       0x10 arch/arm/cpu/armv7/start.o
 .rel.data.av_  0x000000008085fe5c      0x800 arch/arm/cpu/armv7/start.o
 .rel.u_boot_list_2_env_clbk_2_loadaddr
                0x000000008086065c       0x10 arch/arm/cpu/armv7/start.o
 .rel.data.stdio_names
                0x000000008086066c       0x18 arch/arm/cpu/armv7/start.o
 .rel.text.get_dev_hwpart
                0x0000000080860684        0x8 arch/arm/cpu/armv7/start.o
 .rel.text.dev_print
                0x000000008086068c       0x88 arch/arm/cpu/armv7/start.o
 .rel.text.part_init
                0x0000000080860714       0x10 arch/arm/cpu/armv7/start.o
 .rel.text.part_print
                0x0000000080860724       0x70 arch/arm/cpu/armv7/start.o
 .rel.text.part_get_info
                0x0000000080860794       0x10 arch/arm/cpu/armv7/start.o
 .rel.text.blk_get_device_by_str
                0x00000000808607a4       0x18 arch/arm/cpu/armv7/start.o
 .rel.text.blk_get_device_part_str
                0x00000000808607bc       0x78 arch/arm/cpu/armv7/start.o
 .rel.text.test_block_type
                0x0000000080860834       0x10 arch/arm/cpu/armv7/start.o
 .rel.text.print_partition_extended
                0x0000000080860844       0x30 arch/arm/cpu/armv7/start.o
 .rel.text.part_print_dos
                0x0000000080860874        0x8 arch/arm/cpu/armv7/start.o
 .rel.text.part_get_info_extended
                0x000000008086087c       0x48 arch/arm/cpu/armv7/start.o
 .rel.text.part_get_info_iso_verb
                0x00000000808608c4       0x98 arch/arm/cpu/armv7/start.o
 .rel.text.part_print_iso
                0x000000008086095c       0x18 arch/arm/cpu/armv7/start.o
 .rel.text.print_efiname
                0x0000000080860974       0x10 arch/arm/cpu/armv7/start.o
 .rel.text.set_protective_mbr
                0x0000000080860984       0x18 arch/arm/cpu/armv7/start.o
 .rel.text.validate_gpt_entries
                0x000000008086099c       0x10 arch/arm/cpu/armv7/start.o
 .rel.text.validate_gpt_header
                0x00000000808609ac       0x30 arch/arm/cpu/armv7/start.o
 .rel.text.is_gpt_valid
                0x00000000808609dc       0x38 arch/arm/cpu/armv7/start.o
 .rel.text.is_pte_valid
                0x0000000080860a14       0x10 arch/arm/cpu/armv7/start.o
 .rel.text.part_print_efi
                0x0000000080860a24       0x60 arch/arm/cpu/armv7/start.o
 .rel.text.part_get_info_efi
                0x0000000080860a84       0x40 arch/arm/cpu/armv7/start.o
 .rel.text.write_gpt_table
                0x0000000080860ac4        0x8 arch/arm/cpu/armv7/start.o
 .rel.text.gpt_fill_pte
                0x0000000080860acc       0x20 arch/arm/cpu/armv7/start.o
 .rel.text.gpt_restore
                0x0000000080860aec       0x10 arch/arm/cpu/armv7/start.o
 .rel.text.gpt_verify_headers
                0x0000000080860afc       0x18 arch/arm/cpu/armv7/start.o
 .rel.text.gpt_verify_partitions
                0x0000000080860b14       0x30 arch/arm/cpu/armv7/start.o
 .rel.text.write_mbr_and_gpt_partitions
                0x0000000080860b44        0x0 arch/arm/cpu/armv7/start.o
 .rel.rodata.block_drvr
                0x0000000080860b44       0x28 arch/arm/cpu/armv7/start.o
 .rel.u_boot_list_2_part_driver_2_dos
                0x0000000080860b6c       0x20 arch/arm/cpu/armv7/start.o
 .rel.u_boot_list_2_part_driver_2_iso
                0x0000000080860b8c       0x20 arch/arm/cpu/armv7/start.o
 .rel.u_boot_list_2_part_driver_2_a_efi
                0x0000000080860bac       0x20 arch/arm/cpu/armv7/start.o
 .rel.text.device_bind
                0x0000000080860bcc       0x10 arch/arm/cpu/armv7/start.o
 .rel.text.device_probe
                0x0000000080860bdc       0x10 arch/arm/cpu/armv7/start.o
 .rel.text.dev_get_platdata
                0x0000000080860bec       0x10 arch/arm/cpu/armv7/start.o
 .rel.text.dev_get_parent_platdata
                0x0000000080860bfc        0x0 arch/arm/cpu/armv7/start.o
 .rel.text.dev_get_uclass_platdata
                0x0000000080860bfc        0x0 arch/arm/cpu/armv7/start.o
 .rel.text.dev_get_priv
                0x0000000080860bfc       0x10 arch/arm/cpu/armv7/start.o
 .rel.text.dev_get_uclass_priv
                0x0000000080860c0c       0x10 arch/arm/cpu/armv7/start.o
 .rel.text.dev_get_parent_priv
                0x0000000080860c1c        0x0 arch/arm/cpu/armv7/start.o
 .rel.text.lists_driver_lookup_name
                0x0000000080860c1c       0x10 arch/arm/cpu/armv7/start.o
 .rel.text.lists_uclass_lookup
                0x0000000080860c2c       0x10 arch/arm/cpu/armv7/start.o
 .rel.text.lists_bind_drivers
                0x0000000080860c3c       0x18 arch/arm/cpu/armv7/start.o
 .rel.text.dm_root
                0x0000000080860c54        0x8 arch/arm/cpu/armv7/start.o
 .rel.text.dm_init
                0x0000000080860c5c       0x10 arch/arm/cpu/armv7/start.o
 .rel.text.dm_scan_platdata
                0x0000000080860c6c        0x8 arch/arm/cpu/armv7/start.o
 .rel.text.uclass_resolve_seq
                0x0000000080860c74        0x8 arch/arm/cpu/armv7/start.o
 .rel.text.device_remove
                0x0000000080860c7c       0x20 arch/arm/cpu/armv7/start.o
 .rel.text.show_devices
                0x0000000080860c9c       0x30 arch/arm/cpu/armv7/start.o
 .rel.text.dm_dump_all
                0x0000000080860ccc       0x10 arch/arm/cpu/armv7/start.o
 .rel.text.dm_dump_uclass
                0x0000000080860cdc       0x20 arch/arm/cpu/armv7/start.o
 .rel.text.scsi_get_device
                0x0000000080860cfc        0x0 arch/arm/cpu/armv7/start.o
 .rel.text.scsi_init
                0x0000000080860cfc        0x0 arch/arm/cpu/armv7/start.o
 .rel.text.hw_watchdog_reset
                0x0000000080860cfc        0x8 arch/arm/cpu/armv7/start.o
 .rel.text._input_send_keycodes
                0x0000000080860d04        0x0 arch/arm/cpu/armv7/start.o
 .rel.text.input_add_tables
                0x0000000080860d04        0x0 arch/arm/cpu/armv7/start.o
 .rel.text.input_stdio_register
                0x0000000080860d04        0x0 arch/arm/cpu/armv7/start.o
 .rel.rodata.root_info
                0x0000000080860d04        0x8 arch/arm/cpu/armv7/start.o
 .rel.rodata.mod_exp_ops_sw
                0x0000000080860d0c        0x8 arch/arm/cpu/armv7/start.o
 .rel.rodata.kbd_to_ansi364
                0x0000000080860d14        0x0 arch/arm/cpu/armv7/start.o
 .rel.u_boot_list_2_driver_2_root_driver
                0x0000000080860d14        0x8 arch/arm/cpu/armv7/start.o
 .rel.u_boot_list_2_uclass_2_root
                0x0000000080860d1c        0x8 arch/arm/cpu/armv7/start.o
 .rel.u_boot_list_2_uclass_2_disk
                0x0000000080860d24        0x8 arch/arm/cpu/armv7/start.o
 .rel.u_boot_list_2_uclass_2_mod_exp
                0x0000000080860d2c        0x8 arch/arm/cpu/armv7/start.o
 .rel.u_boot_list_2_driver_info_2_mod_exp_sw
                0x0000000080860d34        0x8 arch/arm/cpu/armv7/start.o
 .rel.u_boot_list_2_driver_2_mod_exp_sw
                0x0000000080860d3c       0x10 arch/arm/cpu/armv7/start.o
 .rel.u_boot_list_2_uclass_2_misc
                0x0000000080860d4c        0x8 arch/arm/cpu/armv7/start.o
 .rel.data.kbd_entry
                0x0000000080860d54        0x0 arch/arm/cpu/armv7/start.o
 .rel.text.check_reserved
                0x0000000080860d54       0x10 arch/arm/cpu/armv7/start.o
 .rel.text.dm_gpio_lookup_name
                0x0000000080860d64        0x8 arch/arm/cpu/armv7/start.o
 .rel.text.gpio_direction_input
                0x0000000080860d6c        0x8 arch/arm/cpu/armv7/start.o
 .rel.text.gpio_direction_output
                0x0000000080860d74        0x8 arch/arm/cpu/armv7/start.o
 .rel.text.dm_gpio_get_value
                0x0000000080860d7c        0x8 arch/arm/cpu/armv7/start.o
 .rel.text.dm_gpio_set_value
                0x0000000080860d84        0x0 arch/arm/cpu/armv7/start.o
 .rel.text.dm_gpio_set_dir_flags
                0x0000000080860d84        0x0 arch/arm/cpu/armv7/start.o
 .rel.text._gpio_request_by_name_nodev
                0x0000000080860d84        0x0 arch/arm/cpu/armv7/start.o
 .rel.text.gpio_get_status
                0x0000000080860d84       0x28 arch/arm/cpu/armv7/start.o
 .rel.text.gpio_get_list_count
                0x0000000080860dac        0x0 arch/arm/cpu/armv7/start.o
 .rel.rodata.gpio_function
                0x0000000080860dac       0x28 arch/arm/cpu/armv7/start.o
 .rel.rodata.gpio_omap_ops
                0x0000000080860dd4       0x30 arch/arm/cpu/armv7/start.o
 .rel.rodata.omap_gpio_ids
                0x0000000080860e04       0x18 arch/arm/cpu/armv7/start.o
 .rel.u_boot_list_2_uclass_2_gpio
                0x0000000080860e1c       0x18 arch/arm/cpu/armv7/start.o
 .rel.u_boot_list_2_driver_2_gpio_omap
                0x0000000080860e34       0x28 arch/arm/cpu/armv7/start.o
 .rel.text.i2c_get_adapter
                0x0000000080860e5c       0x18 arch/arm/cpu/armv7/start.o
 .rel.text.i2c_init_bus
                0x0000000080860e74       0x10 arch/arm/cpu/armv7/start.o
 .rel.text.i2c_set_bus_num
                0x0000000080860e84       0x18 arch/arm/cpu/armv7/start.o
 .rel.text.omap24_get_base.isra.0
                0x0000000080860e9c        0x8 arch/arm/cpu/armv7/start.o
 .rel.text.omap24_i2c_setspeed
                0x0000000080860ea4       0x10 arch/arm/cpu/armv7/start.o
 .rel.text.wait_for_bb
                0x0000000080860eb4        0x8 arch/arm/cpu/armv7/start.o
 .rel.text.wait_for_event
                0x0000000080860ebc       0x10 arch/arm/cpu/armv7/start.o
 .rel.text.omap24_i2c_write
                0x0000000080860ecc       0x58 arch/arm/cpu/armv7/start.o
 .rel.text.omap24_i2c_read
                0x0000000080860f24       0x40 arch/arm/cpu/armv7/start.o
 .rel.text.omap24_i2c_probe
                0x0000000080860f64        0x8 arch/arm/cpu/armv7/start.o
 .rel.text.omap24_i2c_init
                0x0000000080860f6c       0x10 arch/arm/cpu/armv7/start.o
 .rel.u_boot_list_2_i2c_2_omap24_0
                0x0000000080860f7c       0x30 arch/arm/cpu/armv7/start.o
 .rel.u_boot_list_2_i2c_2_omap24_1
                0x0000000080860fac       0x30 arch/arm/cpu/armv7/start.o
 .rel.u_boot_list_2_i2c_2_omap24_2
                0x0000000080860fdc       0x28 arch/arm/cpu/armv7/start.o
 .rel.text.mmc_send_status
                0x0000000080861004       0x10 arch/arm/cpu/armv7/start.o
 .rel.text.mmc_select_bus_width
                0x0000000080861014       0x10 arch/arm/cpu/armv7/start.o
 .rel.text.find_mmc_device
                0x0000000080861024       0x10 arch/arm/cpu/armv7/start.o
 .rel.text.mmc_send_tuning
                0x0000000080861034        0x0 arch/arm/cpu/armv7/start.o
 .rel.text.mmc_select_hwpart
                0x0000000080861034        0x8 arch/arm/cpu/armv7/start.o
 .rel.text.mmc_bread
                0x000000008086103c       0x10 arch/arm/cpu/armv7/start.o
 .rel.text.mmc_hwpart_config
                0x000000008086104c       0x48 arch/arm/cpu/armv7/start.o
 .rel.text.mmc_startup
                0x0000000080861094       0x30 arch/arm/cpu/armv7/start.o
 .rel.text.mmc_register
                0x00000000808610c4        0x0 arch/arm/cpu/armv7/start.o
 .rel.text.mmc_create
                0x00000000808610c4       0x28 arch/arm/cpu/armv7/start.o
 .rel.text.mmc_start_init
                0x00000000808610ec       0x10 arch/arm/cpu/armv7/start.o
 .rel.text.print_mmc_devices
                0x00000000808610fc       0x40 arch/arm/cpu/armv7/start.o
 .rel.text.get_mmc_num
                0x000000008086113c        0x8 arch/arm/cpu/armv7/start.o
 .rel.text.mmc_initialize
                0x0000000080861144       0x18 arch/arm/cpu/armv7/start.o
 .rel.text.omap_hsmmc_set_ios
                0x000000008086115c       0x10 arch/arm/cpu/armv7/start.o
 .rel.text.mmc_reset_controller_fsm
                0x000000008086116c       0x10 arch/arm/cpu/armv7/start.o
 .rel.text.omap_hsmmc_send_cmd
                0x000000008086117c       0x38 arch/arm/cpu/armv7/start.o
 .rel.text.mmc_init_stream
                0x00000000808611b4       0x18 arch/arm/cpu/armv7/start.o
 .rel.text.omap_hsmmc_init_setup
                0x00000000808611cc       0x20 arch/arm/cpu/armv7/start.o
 .rel.text.omap_mmc_init
                0x00000000808611ec       0x20 arch/arm/cpu/armv7/start.o
 .rel.text.mmc_berase
                0x000000008086120c       0x10 arch/arm/cpu/armv7/start.o
 .rel.text.mmc_bwrite
                0x000000008086121c       0x18 arch/arm/cpu/armv7/start.o
 .rel.rodata.omap_hsmmc_ops
                0x0000000080861234       0x28 arch/arm/cpu/armv7/start.o
 .rel.text.__mtd_next_device
                0x000000008086125c        0x8 arch/arm/cpu/armv7/start.o
 .rel.text.del_mtd_device
                0x0000000080861264       0x10 arch/arm/cpu/armv7/start.o
 .rel.text.get_mtd_device
                0x0000000080861274        0x8 arch/arm/cpu/armv7/start.o
 .rel.text.__put_mtd_device
                0x000000008086127c       0x10 arch/arm/cpu/armv7/start.o
 .rel.text.add_mtd_device
                0x000000008086128c       0x20 arch/arm/cpu/armv7/start.o
 .rel.text.mtd_arg_off
                0x00000000808612ac        0x0 arch/arm/cpu/armv7/start.o
 .rel.text.mtd_arg_off_size
                0x00000000808612ac        0x0 arch/arm/cpu/armv7/start.o
 .rel.text.mtd_erase_callback
                0x00000000808612ac        0x8 arch/arm/cpu/armv7/start.o
 .rel.text.del_mtd_partitions
                0x00000000808612b4        0x8 arch/arm/cpu/armv7/start.o
 .rel.text.add_mtd_partitions
                0x00000000808612bc       0xf8 arch/arm/cpu/armv7/start.o
 .rel.text.mtd_is_partition
                0x00000000808613b4        0x8 arch/arm/cpu/armv7/start.o
 .rel.data.mtd_partitions
                0x00000000808613bc       0x10 arch/arm/cpu/armv7/start.o
 .rel.text.add_to_list
                0x00000000808613cc       0x10 arch/arm/cpu/armv7/start.o
 .rel.text.ubi_attach
                0x00000000808613dc       0x50 arch/arm/cpu/armv7/start.o
 .rel.text.ubi_enumerate_volumes
                0x000000008086142c        0x0 arch/arm/cpu/armv7/start.o
 .rel.text.ubi_get_device
                0x000000008086142c        0x8 arch/arm/cpu/armv7/start.o
 .rel.text.ubi_get_by_major
                0x0000000080861434        0x0 arch/arm/cpu/armv7/start.o
 .rel.text.ubi_major2num
                0x0000000080861434        0x0 arch/arm/cpu/armv7/start.o
 .rel.text.ubi_attach_mtd_dev
                0x0000000080861434       0x70 arch/arm/cpu/armv7/start.o
 .rel.text.ubi_detach_mtd_dev
                0x00000000808614a4       0x18 arch/arm/cpu/armv7/start.o
 .rel.text.ubi_init
                0x00000000808614bc       0x20 arch/arm/cpu/armv7/start.o
 .rel.text.ubi_exit
                0x00000000808614dc       0x18 arch/arm/cpu/armv7/start.o
 .rel.text.ubi_mtd_param_parse
                0x00000000808614f4       0x18 arch/arm/cpu/armv7/start.o
 .rel.text.vtbl_check
                0x000000008086150c        0x8 arch/arm/cpu/armv7/start.o
 .rel.text.ubi_change_vtbl_record
                0x0000000080861514       0x28 arch/arm/cpu/armv7/start.o
 .rel.text.ubi_vtbl_rename_volumes
                0x000000008086153c        0x0 arch/arm/cpu/armv7/start.o
 .rel.text.ubi_read_volume_table
                0x000000008086153c       0x20 arch/arm/cpu/armv7/start.o
 .rel.text.ubi_create_volume
                0x000000008086155c        0x8 arch/arm/cpu/armv7/start.o
 .rel.text.ubi_add_volume
                0x0000000080861564        0x8 arch/arm/cpu/armv7/start.o
 .rel.text.ubi_eba_read_leb
                0x000000008086156c        0x8 arch/arm/cpu/armv7/start.o
 .rel.text.ubi_eba_write_leb
                0x0000000080861574       0x20 arch/arm/cpu/armv7/start.o
 .rel.text.ubi_eba_write_leb_st
                0x0000000080861594        0x8 arch/arm/cpu/armv7/start.o
 .rel.text.ubi_eba_atomic_leb_change
                0x000000008086159c        0x8 arch/arm/cpu/armv7/start.o
 .rel.text.ubi_io_read
                0x00000000808615a4        0x8 arch/arm/cpu/armv7/start.o
 .rel.text.ubi_self_check_all_ff
                0x00000000808615ac        0x8 arch/arm/cpu/armv7/start.o
 .rel.text.ubi_io_write
                0x00000000808615b4       0x18 arch/arm/cpu/armv7/start.o
 .rel.text.do_sync_erase
                0x00000000808615cc        0x8 arch/arm/cpu/armv7/start.o
 .rel.text.ubi_io_sync_erase
                0x00000000808615d4       0x18 arch/arm/cpu/armv7/start.o
 .rel.text.schedule_erase
                0x00000000808615ec        0x8 arch/arm/cpu/armv7/start.o
 .rel.text.ensure_wear_leveling
                0x00000000808615f4        0x8 arch/arm/cpu/armv7/start.o
 .rel.text.erase_worker
                0x00000000808615fc       0x10 arch/arm/cpu/armv7/start.o
 .rel.text.wear_leveling_worker
                0x000000008086160c        0x8 arch/arm/cpu/armv7/start.o
 .rel.text.ubi_wl_scrub_peb
                0x0000000080861614        0x8 arch/arm/cpu/armv7/start.o
 .rel.text.ubi_thread
                0x000000008086161c        0x0 arch/arm/cpu/armv7/start.o
 .rel.text.ubi_wl_init
                0x000000008086161c       0x10 arch/arm/cpu/armv7/start.o
 .rel.text.crc32_le
                0x000000008086162c        0x8 arch/arm/cpu/armv7/start.o
 .rel.text.ubi_update_reserved
                0x0000000080861634        0x8 arch/arm/cpu/armv7/start.o
 .rel.text.ubi_dump_flash
                0x000000008086163c        0x8 arch/arm/cpu/armv7/start.o
 .rel.text.ubi_dump_vol_info
                0x0000000080861644       0x78 arch/arm/cpu/armv7/start.o
 .rel.text.cpsw_mdio_read
                0x00000000808616bc       0x10 arch/arm/cpu/armv7/start.o
 .rel.text.cpsw_mdio_write
                0x00000000808616cc       0x10 arch/arm/cpu/armv7/start.o
 .rel.text.cpsw_send
                0x00000000808616dc        0x8 arch/arm/cpu/armv7/start.o
 .rel.text.cpsw_ale_add_mcast.constprop.9
                0x00000000808616e4       0x10 arch/arm/cpu/armv7/start.o
 .rel.text.cpsw_init
                0x00000000808616f4       0x30 arch/arm/cpu/armv7/start.o
 .rel.text._cpsw_register
                0x0000000080861724       0x18 arch/arm/cpu/armv7/start.o
 .rel.text.cpsw_register
                0x000000008086173c       0x28 arch/arm/cpu/armv7/start.o
 .rel.text.cpsw_am33xx_cm_get_macid.isra.0
                0x0000000080861764        0x0 arch/arm/cpu/armv7/start.o
 .rel.text.davinci_emac_3517_get_macid.isra.1
                0x0000000080861764        0x0 arch/arm/cpu/armv7/start.o
 .rel.text.ti_cm_get_macid
                0x0000000080861764        0x0 arch/arm/cpu/armv7/start.o
 .rel.text.genphy_update_link
                0x0000000080861764       0x28 arch/arm/cpu/armv7/start.o
 .rel.text.phy_register
                0x000000008086178c        0x8 arch/arm/cpu/armv7/start.o
 .rel.text.get_phy_device_by_mask
                0x0000000080861794       0x18 arch/arm/cpu/armv7/start.o
 .rel.text.phy_reset
                0x00000000808617ac        0x8 arch/arm/cpu/armv7/start.o
 .rel.text.phy_connect_dev
                0x00000000808617b4        0x8 arch/arm/cpu/armv7/start.o
 .rel.text.phy_connect
                0x00000000808617bc        0x8 arch/arm/cpu/armv7/start.o
 .rel.text.phy_get_interface_by_name
                0x00000000808617c4        0x0 arch/arm/cpu/armv7/start.o
 .rel.text.phy_atheros_init
                0x00000000808617c4       0x18 arch/arm/cpu/armv7/start.o
 .rel.text.phy_smsc_init
                0x00000000808617dc       0x20 arch/arm/cpu/armv7/start.o
 .rel.rodata.phy_interface_strings
                0x00000000808617fc        0x0 arch/arm/cpu/armv7/start.o
 .rel.data.genphy_driver
                0x00000000808617fc       0x20 arch/arm/cpu/armv7/start.o
 .rel.data.phy_drivers
                0x000000008086181c       0x10 arch/arm/cpu/armv7/start.o
 .rel.data.AR8021_driver
                0x000000008086182c       0x20 arch/arm/cpu/armv7/start.o
 .rel.data.AR8031_driver
                0x000000008086184c       0x20 arch/arm/cpu/armv7/start.o
 .rel.data.AR8035_driver
                0x000000008086186c       0x20 arch/arm/cpu/armv7/start.o
 .rel.data.lan8700_driver
                0x000000008086188c       0x20 arch/arm/cpu/armv7/start.o
 .rel.data.lan8710_driver
                0x00000000808618ac       0x20 arch/arm/cpu/armv7/start.o
 .rel.data.lan911x_driver
                0x00000000808618cc       0x20 arch/arm/cpu/armv7/start.o
 .rel.data.lan8740_driver
                0x00000000808618ec       0x20 arch/arm/cpu/armv7/start.o
 .rel.text.serial_post_probe
                0x000000008086190c       0x20 arch/arm/cpu/armv7/start.o
 .rel.text.serial_init
                0x000000008086192c        0x8 arch/arm/cpu/armv7/start.o
 .rel.text.on_baudrate
                0x0000000080861934       0x18 arch/arm/cpu/armv7/start.o
 .rel.rodata.ns16550_serial_ops
                0x000000008086194c       0x20 arch/arm/cpu/armv7/start.o
 .rel.u_boot_list_2_env_clbk_2_baudrate
                0x000000008086196c       0x10 arch/arm/cpu/armv7/start.o
 .rel.u_boot_list_2_uclass_2_serial
                0x000000008086197c       0x18 arch/arm/cpu/armv7/start.o
 .rel.u_boot_list_2_driver_2_ns16550_serial
                0x0000000080861994       0x18 arch/arm/cpu/armv7/start.o
 .rel.text.spi_set_wordlen
                0x00000000808619ac        0x0 arch/arm/cpu/armv7/start.o
 .rel.text.spi_setup_slave
                0x00000000808619ac        0x0 arch/arm/cpu/armv7/start.o
 .rel.text.spi_xfer
                0x00000000808619ac        0x0 arch/arm/cpu/armv7/start.o
 .rel.text.usb_ep_autoconfig
                0x00000000808619ac        0x8 arch/arm/cpu/armv7/start.o
 .rel.text.usb_ep_autoconfig_reset
                0x00000000808619b4        0x8 arch/arm/cpu/armv7/start.o
 .rel.text.composite_suspend
                0x00000000808619bc        0x0 arch/arm/cpu/armv7/start.o
 .rel.text.composite_resume
                0x00000000808619bc        0x0 arch/arm/cpu/armv7/start.o
 .rel.text.composite_unbind
                0x00000000808619bc        0x0 arch/arm/cpu/armv7/start.o
 .rel.text.composite_bind
                0x00000000808619bc        0x0 arch/arm/cpu/armv7/start.o
 .rel.text.g_dnl_do_config
                0x00000000808619bc        0x0 arch/arm/cpu/armv7/start.o
 .rel.text.composite_disconnect
                0x00000000808619bc        0x0 arch/arm/cpu/armv7/start.o
 .rel.text.composite_setup
                0x00000000808619bc        0x0 arch/arm/cpu/armv7/start.o
 .rel.text.usb_composite_register
                0x00000000808619bc        0x0 arch/arm/cpu/armv7/start.o
 .rel.text.usb_composite_unregister
                0x00000000808619bc        0x0 arch/arm/cpu/armv7/start.o
 .rel.text.g_dnl_set_serialnumber
                0x00000000808619bc        0x0 arch/arm/cpu/armv7/start.o
 .rel.text.g_dnl_bind
                0x00000000808619bc        0x0 arch/arm/cpu/armv7/start.o
 .rel.text.g_dnl_detach
                0x00000000808619bc        0x0 arch/arm/cpu/armv7/start.o
 .rel.text.g_dnl_trigger_detach
                0x00000000808619bc        0x0 arch/arm/cpu/armv7/start.o
 .rel.text.g_dnl_clear_detach
                0x00000000808619bc        0x0 arch/arm/cpu/armv7/start.o
 .rel.text.g_dnl_register
                0x00000000808619bc        0x0 arch/arm/cpu/armv7/start.o
 .rel.text.g_dnl_unregister
                0x00000000808619bc        0x0 arch/arm/cpu/armv7/start.o
 .rel.text.tx_complete
                0x00000000808619bc        0x8 arch/arm/cpu/armv7/start.o
 .rel.text.rx_complete
                0x00000000808619c4        0x8 arch/arm/cpu/armv7/start.o
 .rel.text.usb_eth_send
                0x00000000808619cc       0x30 arch/arm/cpu/armv7/start.o
 .rel.text.rndis_command_complete
                0x00000000808619fc       0x18 arch/arm/cpu/armv7/start.o
 .rel.text.rndis_control_ack_complete
                0x0000000080861a14        0x8 arch/arm/cpu/armv7/start.o
 .rel.text.rndis_control_ack
                0x0000000080861a1c       0x10 arch/arm/cpu/armv7/start.o
 .rel.text.nibble
                0x0000000080861a2c        0x8 arch/arm/cpu/armv7/start.o
 .rel.text.eth_bind
                0x0000000080861a34      0x140 arch/arm/cpu/armv7/start.o
 .rel.text.set_ether_config.isra.5
                0x0000000080861b74       0x48 arch/arm/cpu/armv7/start.o
 .rel.text.rx_submit.constprop.8
                0x0000000080861bbc       0x28 arch/arm/cpu/armv7/start.o
 .rel.text.usb_eth_recv
                0x0000000080861be4       0x28 arch/arm/cpu/armv7/start.o
 .rel.text.eth_setup
                0x0000000080861c0c       0x98 arch/arm/cpu/armv7/start.o
 .rel.text.usb_eth_init
                0x0000000080861ca4       0x98 arch/arm/cpu/armv7/start.o
 .rel.text.usb_eth_initialize
                0x0000000080861d3c       0x30 arch/arm/cpu/armv7/start.o
 .rel.text.rndis_add_response
                0x0000000080861d6c        0x8 arch/arm/cpu/armv7/start.o
 .rel.text.rndis_signal_connect
                0x0000000080861d74        0x8 arch/arm/cpu/armv7/start.o
 .rel.text.rndis_signal_disconnect
                0x0000000080861d7c        0x8 arch/arm/cpu/armv7/start.o
 .rel.text.rndis_set_host_mac
                0x0000000080861d84        0x8 arch/arm/cpu/armv7/start.o
 .rel.text.rndis_get_state
                0x0000000080861d8c        0x8 arch/arm/cpu/armv7/start.o
 .rel.text.rndis_msg_parser
                0x0000000080861d94       0x18 arch/arm/cpu/armv7/start.o
 .rel.text.rndis_register
                0x0000000080861dac        0x8 arch/arm/cpu/armv7/start.o
 .rel.text.rndis_deregister
                0x0000000080861db4        0x8 arch/arm/cpu/armv7/start.o
 .rel.text.rndis_set_param_dev
                0x0000000080861dbc        0x8 arch/arm/cpu/armv7/start.o
 .rel.text.rndis_set_param_vendor
                0x0000000080861dc4        0x8 arch/arm/cpu/armv7/start.o
 .rel.text.rndis_set_param_medium
                0x0000000080861dcc        0x8 arch/arm/cpu/armv7/start.o
 .rel.text.rndis_free_response
                0x0000000080861dd4        0x8 arch/arm/cpu/armv7/start.o
 .rel.text.rndis_get_next_response
                0x0000000080861ddc        0x8 arch/arm/cpu/armv7/start.o
 .rel.text.rndis_uninit
                0x0000000080861de4        0x8 arch/arm/cpu/armv7/start.o
 .rel.text.rndis_init
                0x0000000080861dec        0x8 arch/arm/cpu/armv7/start.o
 .rel.data.g_dnl_string_tab
                0x0000000080861df4        0x0 arch/arm/cpu/armv7/start.o
 .rel.data.g_dnl_composite_strings
                0x0000000080861df4        0x0 arch/arm/cpu/armv7/start.o
 .rel.data.g_dnl_driver
                0x0000000080861df4        0x0 arch/arm/cpu/armv7/start.o
 .rel.data.composite_driver
                0x0000000080861df4        0x0 arch/arm/cpu/armv7/start.o
 .rel.data.g_dnl_string_defs
                0x0000000080861df4        0x0 arch/arm/cpu/armv7/start.o
 .rel.data.fs_eth_function
                0x0000000080861df4        0x8 arch/arm/cpu/armv7/start.o
 .rel.data.hs_rndis_function
                0x0000000080861dfc       0x50 arch/arm/cpu/armv7/start.o
 .rel.data.l_priv
                0x0000000080861e4c        0x8 arch/arm/cpu/armv7/start.o
 .rel.data.stringtab
                0x0000000080861e54        0x8 arch/arm/cpu/armv7/start.o
 .rel.data.fs_rndis_function
                0x0000000080861e5c       0x50 arch/arm/cpu/armv7/start.o
 .rel.data.hs_eth_function
                0x0000000080861eac        0x8 arch/arm/cpu/armv7/start.o
 .rel.data.strings
                0x0000000080861eb4       0x38 arch/arm/cpu/armv7/start.o
 .rel.text.init_peripheral_ep
                0x0000000080861eec       0x30 arch/arm/cpu/armv7/start.o
 .rel.text.musb_gadget_setup
                0x0000000080861f1c       0x10 arch/arm/cpu/armv7/start.o
 .rel.text.musb_g_ep0_irq
                0x0000000080861f2c       0x48 arch/arm/cpu/armv7/start.o
 .rel.text.musb_load_testpacket
                0x0000000080861f74        0x8 arch/arm/cpu/armv7/start.o
 .rel.text.musb_init_controller
                0x0000000080861f7c       0xc0 arch/arm/cpu/armv7/start.o
 .rel.text.construct_urb
                0x000000008086203c        0x8 arch/arm/cpu/armv7/start.o
 .rel.text.submit_urb.constprop.8
                0x0000000080862044       0x18 arch/arm/cpu/armv7/start.o
 .rel.text.musb_lowlevel_init
                0x000000008086205c        0x8 arch/arm/cpu/armv7/start.o
 .rel.text.usb_lowlevel_stop
                0x0000000080862064       0x10 arch/arm/cpu/armv7/start.o
 .rel.text.submit_bulk_msg
                0x0000000080862074        0x8 arch/arm/cpu/armv7/start.o
 .rel.text.submit_control_msg
                0x000000008086207c        0x8 arch/arm/cpu/armv7/start.o
 .rel.text.submit_int_msg
                0x0000000080862084        0x8 arch/arm/cpu/armv7/start.o
 .rel.text.create_int_queue
                0x000000008086208c        0x0 arch/arm/cpu/armv7/start.o
 .rel.text.poll_int_queue
                0x000000008086208c        0x0 arch/arm/cpu/armv7/start.o
 .rel.text.destroy_int_queue
                0x000000008086208c        0x0 arch/arm/cpu/armv7/start.o
 .rel.text.usb_reset_root_port
                0x000000008086208c        0x8 arch/arm/cpu/armv7/start.o
 .rel.text.usb_lowlevel_init
                0x0000000080862094        0x8 arch/arm/cpu/armv7/start.o
 .rel.text.usb_gadget_handle_interrupts
                0x000000008086209c        0x8 arch/arm/cpu/armv7/start.o
 .rel.text.usb_gadget_register_driver
                0x00000000808620a4       0x28 arch/arm/cpu/armv7/start.o
 .rel.text.usb_gadget_unregister_driver
                0x00000000808620cc        0x8 arch/arm/cpu/armv7/start.o
 .rel.text.musb_register
                0x00000000808620d4       0x10 arch/arm/cpu/armv7/start.o
 .rel.text.musb_h_ep0_flush_fifo
                0x00000000808620e4        0x8 arch/arm/cpu/armv7/start.o
 .rel.text.musb_h_tx_flush_fifo
                0x00000000808620ec        0x8 arch/arm/cpu/armv7/start.o
 .rel.text.musb_start_urb
                0x00000000808620f4       0x20 arch/arm/cpu/armv7/start.o
 .rel.text.musb_advance_schedule
                0x0000000080862114       0x20 arch/arm/cpu/armv7/start.o
 .rel.text.musb_h_ep0_irq
                0x0000000080862134       0x20 arch/arm/cpu/armv7/start.o
 .rel.text.musb_host_rx
                0x0000000080862154       0x10 arch/arm/cpu/armv7/start.o
 .rel.text.dsps_musb_init
                0x0000000080862164        0x8 arch/arm/cpu/armv7/start.o
 .rel.rodata.musb_ep_ops
                0x000000008086216c       0x48 arch/arm/cpu/armv7/start.o
 .rel.rodata.musb_gadget_operations
                0x00000000808621b4       0x28 arch/arm/cpu/armv7/start.o
 .rel.rodata.musb_g_ep0_ops
                0x00000000808621dc       0x38 arch/arm/cpu/armv7/start.o
 .rel.rodata.CSWTCH.19
                0x0000000080862214       0x38 arch/arm/cpu/armv7/start.o
 .rel.data.musb_dsps_ops
                0x000000008086224c       0x20 arch/arm/cpu/armv7/start.o
 .rel.text.fs_probe_unsupported
                0x000000008086226c        0x8 arch/arm/cpu/armv7/start.o
 .rel.text.fs_get_info
                0x0000000080862274        0x8 arch/arm/cpu/armv7/start.o
 .rel.text.fs_close
                0x000000008086227c        0x8 arch/arm/cpu/armv7/start.o
 .rel.text.fs_set_blk_dev
                0x0000000080862284       0x28 arch/arm/cpu/armv7/start.o
 .rel.text.fs_uuid
                0x00000000808622ac        0x0 arch/arm/cpu/armv7/start.o
 .rel.text.fs_ls
                0x00000000808622ac        0x8 arch/arm/cpu/armv7/start.o
 .rel.text.fs_exists
                0x00000000808622b4        0x8 arch/arm/cpu/armv7/start.o
 .rel.text.fs_size
                0x00000000808622bc        0x8 arch/arm/cpu/armv7/start.o
 .rel.text.fs_read
                0x00000000808622c4       0x10 arch/arm/cpu/armv7/start.o
 .rel.text.fs_write
                0x00000000808622d4       0x10 arch/arm/cpu/armv7/start.o
 .rel.text.do_size
                0x00000000808622e4        0x8 arch/arm/cpu/armv7/start.o
 .rel.text.do_load
                0x00000000808622ec       0x50 arch/arm/cpu/armv7/start.o
 .rel.text.do_ls
                0x000000008086233c        0x8 arch/arm/cpu/armv7/start.o
 .rel.text.do_save
                0x0000000080862344       0x28 arch/arm/cpu/armv7/start.o
 .rel.text.do_fs_uuid
                0x000000008086236c        0x0 arch/arm/cpu/armv7/start.o
 .rel.text.do_fs_type
                0x000000008086236c       0x10 arch/arm/cpu/armv7/start.o
 .rel.text.get_fs
                0x000000008086237c        0x8 arch/arm/cpu/armv7/start.o
 .rel.text.ext4fs_free_node
                0x0000000080862384        0x8 arch/arm/cpu/armv7/start.o
 .rel.text.ext4fs_read_file
                0x000000008086238c        0x8 arch/arm/cpu/armv7/start.o
 .rel.text.ext4fs_ls
                0x0000000080862394       0x10 arch/arm/cpu/armv7/start.o
 .rel.text.ext4fs_read
                0x00000000808623a4       0x10 arch/arm/cpu/armv7/start.o
 .rel.text.ext4_read_file
                0x00000000808623b4       0x10 arch/arm/cpu/armv7/start.o
 .rel.text.ext4fs_uuid
                0x00000000808623c4        0x8 arch/arm/cpu/armv7/start.o
 .rel.text.put_ext4
                0x00000000808623cc       0x20 arch/arm/cpu/armv7/start.o
 .rel.text.ext4fs_set_block_bmap
                0x00000000808623ec        0x8 arch/arm/cpu/armv7/start.o
 .rel.text.ext4fs_reset_block_bmap
                0x00000000808623f4        0x8 arch/arm/cpu/armv7/start.o
 .rel.text.ext4fs_set_inode_bmap
                0x00000000808623fc        0x8 arch/arm/cpu/armv7/start.o
 .rel.text.ext4fs_reset_inode_bmap
                0x0000000080862404        0x8 arch/arm/cpu/armv7/start.o
 .rel.text.ext4fs_get_new_blk_no
                0x000000008086240c       0x10 arch/arm/cpu/armv7/start.o
 .rel.text.ext4fs_get_new_inode_no
                0x000000008086241c       0x10 arch/arm/cpu/armv7/start.o
 .rel.text.ext4fs_allocate_blocks
                0x000000008086242c       0x30 arch/arm/cpu/armv7/start.o
 .rel.text.ext4fs_iget
                0x000000008086245c        0x8 arch/arm/cpu/armv7/start.o
 .rel.text.read_allocated_block
                0x0000000080862464       0xd0 arch/arm/cpu/armv7/start.o
 .rel.text.ext4fs_update_parent_dentry
                0x0000000080862534       0x30 arch/arm/cpu/armv7/start.o
 .rel.text.ext4fs_get_parent_inode_num
                0x0000000080862564       0x28 arch/arm/cpu/armv7/start.o
 .rel.text.ext4fs_filename_check
                0x000000008086258c       0x10 arch/arm/cpu/armv7/start.o
 .rel.text.ext4fs_reinit_global
                0x000000008086259c       0x48 arch/arm/cpu/armv7/start.o
 .rel.text.ext4fs_close
                0x00000000808625e4       0x10 arch/arm/cpu/armv7/start.o
 .rel.text.ext4fs_iterate_dir
                0x00000000808625f4       0x30 arch/arm/cpu/armv7/start.o
 .rel.text.ext4fs_find_file1
                0x0000000080862624       0x10 arch/arm/cpu/armv7/start.o
 .rel.text.ext4fs_find_file
                0x0000000080862634        0x8 arch/arm/cpu/armv7/start.o
 .rel.text.ext4fs_open
                0x000000008086263c       0x10 arch/arm/cpu/armv7/start.o
 .rel.text.ext4fs_mount
                0x000000008086264c       0x10 arch/arm/cpu/armv7/start.o
 .rel.text.ext4fs_set_blk_dev
                0x000000008086265c       0x18 arch/arm/cpu/armv7/start.o
 .rel.text.ext4fs_devread
                0x0000000080862674       0x40 arch/arm/cpu/armv7/start.o
 .rel.text.ext4fs_update
                0x00000000808626b4       0x10 arch/arm/cpu/armv7/start.o
 .rel.text.ext4fs_get_bgdtable
                0x00000000808626c4        0x8 arch/arm/cpu/armv7/start.o
 .rel.text.ext4fs_deinit
                0x00000000808626cc        0x8 arch/arm/cpu/armv7/start.o
 .rel.text.ext4fs_init
                0x00000000808626d4       0x10 arch/arm/cpu/armv7/start.o
 .rel.text.ext4fs_write
                0x00000000808626e4       0x90 arch/arm/cpu/armv7/start.o
 .rel.text.ext4_write_file
                0x0000000080862774       0x10 arch/arm/cpu/armv7/start.o
 .rel.text.ext4fs_dump_metadata
                0x0000000080862784        0x8 arch/arm/cpu/armv7/start.o
 .rel.text.ext4fs_free_journal
                0x000000008086278c       0x28 arch/arm/cpu/armv7/start.o
 .rel.text.ext4fs_log_gdt
                0x00000000808627b4       0x10 arch/arm/cpu/armv7/start.o
 .rel.text.ext4fs_log_journal
                0x00000000808627c4       0x20 arch/arm/cpu/armv7/start.o
 .rel.text.ext4fs_put_metadata
                0x00000000808627e4       0x20 arch/arm/cpu/armv7/start.o
 .rel.text.print_revoke_blks
                0x0000000080862804        0x0 arch/arm/cpu/armv7/start.o
 .rel.text.ext4fs_push_revoke_blk
                0x0000000080862804       0x28 arch/arm/cpu/armv7/start.o
 .rel.text.ext4fs_free_revoke_blks
                0x000000008086282c       0x18 arch/arm/cpu/armv7/start.o
 .rel.text.check_blknr_for_revoke
                0x0000000080862844        0x8 arch/arm/cpu/armv7/start.o
 .rel.text.recover_transaction
                0x000000008086284c       0x10 arch/arm/cpu/armv7/start.o
 .rel.text.print_jrnl_status
                0x000000008086285c       0x10 arch/arm/cpu/armv7/start.o
 .rel.text.ext4fs_check_journal_state
                0x000000008086286c       0x18 arch/arm/cpu/armv7/start.o
 .rel.text.ext4fs_init_journal
                0x0000000080862884       0x38 arch/arm/cpu/armv7/start.o
 .rel.text.ext4fs_update_journal
                0x00000000808628bc       0x20 arch/arm/cpu/armv7/start.o
 .rel.text.ext2fs_crc16
                0x00000000808628dc        0x8 arch/arm/cpu/armv7/start.o
 .rel.text.downcase
                0x00000000808628e4        0x8 arch/arm/cpu/armv7/start.o
 .rel.text.disk_read
                0x00000000808628ec       0x10 arch/arm/cpu/armv7/start.o
 .rel.text.disk_write
                0x00000000808628fc       0x20 arch/arm/cpu/armv7/start.o
 .rel.text.flush_fat_buffer
                0x000000008086291c        0x8 arch/arm/cpu/armv7/start.o
 .rel.text.get_fatent_value
                0x0000000080862924        0x8 arch/arm/cpu/armv7/start.o
 .rel.text.get_cluster
                0x000000008086292c        0x8 arch/arm/cpu/armv7/start.o
 .rel.text.set_cluster
                0x0000000080862934        0x8 arch/arm/cpu/armv7/start.o
 .rel.text.read_bootsectandvi
                0x000000008086293c       0x20 arch/arm/cpu/armv7/start.o
 .rel.text.set_name
                0x000000008086295c        0x8 arch/arm/cpu/armv7/start.o
 .rel.text.check_overflow
                0x0000000080862964       0x10 arch/arm/cpu/armv7/start.o
 .rel.text.get_vfatname
                0x0000000080862974       0x10 arch/arm/cpu/armv7/start.o
 .rel.text.flush_dir_table.constprop.8
                0x0000000080862984       0x20 arch/arm/cpu/armv7/start.o
 .rel.text.do_fat_write
                0x00000000808629a4       0xb0 arch/arm/cpu/armv7/start.o
 .rel.text.fat_set_blk_dev
                0x0000000080862a54       0x28 arch/arm/cpu/armv7/start.o
 .rel.text.fat_register_device
                0x0000000080862a7c        0x0 arch/arm/cpu/armv7/start.o
 .rel.text.do_fat_read_at
                0x0000000080862a7c       0x88 arch/arm/cpu/armv7/start.o
 .rel.text.file_fat_detectfs
                0x0000000080862b04       0x70 arch/arm/cpu/armv7/start.o
 .rel.text.file_fat_read_at
                0x0000000080862b74        0x8 arch/arm/cpu/armv7/start.o
 .rel.text.fat_read_file
                0x0000000080862b7c        0x8 arch/arm/cpu/armv7/start.o
 .rel.text.file_fat_write
                0x0000000080862b84       0x10 arch/arm/cpu/armv7/start.o
 .rel.text.file_getfsname
                0x0000000080862b94        0x0 arch/arm/cpu/armv7/start.o
 .rel.text.file_cd
                0x0000000080862b94        0x0 arch/arm/cpu/armv7/start.o
 .rel.text.file_detectfs
                0x0000000080862b94        0x0 arch/arm/cpu/armv7/start.o
 .rel.text.file_ls
                0x0000000080862b94        0x0 arch/arm/cpu/armv7/start.o
 .rel.text.file_read
                0x0000000080862b94        0x0 arch/arm/cpu/armv7/start.o
 .rel.text.compr_init
                0x0000000080862b94        0x8 arch/arm/cpu/armv7/start.o
 .rel.text.ubifs_findfile
                0x0000000080862b9c       0x28 arch/arm/cpu/armv7/start.o
 .rel.text.ubifs_decompress
                0x0000000080862bc4        0x8 arch/arm/cpu/armv7/start.o
 .rel.text.ubifs_compressors_init
                0x0000000080862bcc       0x18 arch/arm/cpu/armv7/start.o
 .rel.text.ubifs_ls
                0x0000000080862be4       0x80 arch/arm/cpu/armv7/start.o
 .rel.text.ubifs_exists
                0x0000000080862c64        0x8 arch/arm/cpu/armv7/start.o
 .rel.text.ubifs_size
                0x0000000080862c6c       0x18 arch/arm/cpu/armv7/start.o
 .rel.text.ubifs_read
                0x0000000080862c84       0x40 arch/arm/cpu/armv7/start.o
 .rel.text.ubifs_load
                0x0000000080862cc4       0x18 arch/arm/cpu/armv7/start.o
 .rel.text.uboot_ubifs_umount
                0x0000000080862cdc       0x10 arch/arm/cpu/armv7/start.o
 .rel.text.ubifs_alloc_inode
                0x0000000080862cec        0x8 arch/arm/cpu/armv7/start.o
 .rel.text.iput
                0x0000000080862cf4        0x8 arch/arm/cpu/armv7/start.o
 .rel.text.ubifs_iget
                0x0000000080862cfc        0x8 arch/arm/cpu/armv7/start.o
 .rel.text.ubifs_umount
                0x0000000080862d04        0x8 arch/arm/cpu/armv7/start.o
 .rel.text.ubifs_mount
                0x0000000080862d0c       0x48 arch/arm/cpu/armv7/start.o
 .rel.text.ubifs_init
                0x0000000080862d54        0x8 arch/arm/cpu/armv7/start.o
 .rel.text.uboot_ubifs_mount
                0x0000000080862d5c       0x18 arch/arm/cpu/armv7/start.o
 .rel.text.ubifs_read_superblock
                0x0000000080862d74       0x18 arch/arm/cpu/armv7/start.o
 .rel.text.dirty_cow_znode
                0x0000000080862d8c        0x8 arch/arm/cpu/armv7/start.o
 .rel.text.tnc_delete
                0x0000000080862d94        0x8 arch/arm/cpu/armv7/start.o
 .rel.text.ubifs_tnc_add_nm
                0x0000000080862d9c        0x8 arch/arm/cpu/armv7/start.o
 .rel.text.ubifs_tnc_close
                0x0000000080862da4        0x8 arch/arm/cpu/armv7/start.o
 .rel.text.ubifs_tnc_has_node
                0x0000000080862dac        0x0 arch/arm/cpu/armv7/start.o
 .rel.text.ubifs_load_znode
                0x0000000080862dac        0x8 arch/arm/cpu/armv7/start.o
 .rel.text.dbg_snprintf_key
                0x0000000080862db4        0x0 arch/arm/cpu/armv7/start.o
 .rel.text.dbg_ntype
                0x0000000080862db4        0x0 arch/arm/cpu/armv7/start.o
 .rel.text.dbg_cstate
                0x0000000080862db4        0x0 arch/arm/cpu/armv7/start.o
 .rel.text.dbg_jhead
                0x0000000080862db4        0x0 arch/arm/cpu/armv7/start.o
 .rel.text.ubifs_dump_index
                0x0000000080862db4        0x0 arch/arm/cpu/armv7/start.o
 .rel.text.crc16
                0x0000000080862db4        0x8 arch/arm/cpu/armv7/start.o
 .rel.text.ubifs_replay_journal
                0x0000000080862dbc        0x8 arch/arm/cpu/armv7/start.o
 .rel.rodata.filesystems
                0x0000000080862dc4        0x0 arch/arm/cpu/armv7/start.o
 .rel.rodata.ubifs_super_operations
                0x0000000080862dc4       0x10 arch/arm/cpu/armv7/start.o
 .rel.rodata.CSWTCH.37
                0x0000000080862dd4        0x0 arch/arm/cpu/armv7/start.o
 .rel.rodata.CSWTCH.44
                0x0000000080862dd4        0x0 arch/arm/cpu/armv7/start.o
 .rel.rodata.CSWTCH.46
                0x0000000080862dd4        0x0 arch/arm/cpu/armv7/start.o
 .rel.rodata.CSWTCH.42
                0x0000000080862dd4        0x0 arch/arm/cpu/armv7/start.o
 .rel.data.fstypes
                0x0000000080862dd4      0x120 arch/arm/cpu/armv7/start.o
 .rel.data.lzo_compr
                0x0000000080862ef4       0x18 arch/arm/cpu/armv7/start.o
 .rel.data.none_compr
                0x0000000080862f0c       0x10 arch/arm/cpu/armv7/start.o
 .rel.data.zlib_compr
                0x0000000080862f1c       0x18 arch/arm/cpu/armv7/start.o
 .rel.data.ubifs_fs_type
                0x0000000080862f34       0x18 arch/arm/cpu/armv7/start.o
 .rel.text.efi_load_pe
                0x0000000080862f4c       0x30 arch/arm/cpu/armv7/start.o
 .rel.text.efi_save_gd
                0x0000000080862f7c        0x8 arch/arm/cpu/armv7/start.o
 .rel.text.efi_restore_gd
                0x0000000080862f84       0x10 arch/arm/cpu/armv7/start.o
 .rel.text.efi_allocate_pages_ext
                0x0000000080862f94        0x8 arch/arm/cpu/armv7/start.o
 .rel.text.efi_free_pages_ext
                0x0000000080862f9c        0x8 arch/arm/cpu/armv7/start.o
 .rel.text.efi_get_memory_map_ext
                0x0000000080862fa4        0x8 arch/arm/cpu/armv7/start.o
 .rel.text.efi_calculate_crc32
                0x0000000080862fac        0x8 arch/arm/cpu/armv7/start.o
 .rel.text.efi_uninstall_multiple_protocol_interfaces
                0x0000000080862fb4        0x8 arch/arm/cpu/armv7/start.o
 .rel.text.efi_install_multiple_protocol_interfaces
                0x0000000080862fbc        0x8 arch/arm/cpu/armv7/start.o
 .rel.text.efi_locate_protocol
                0x0000000080862fc4       0x18 arch/arm/cpu/armv7/start.o
 .rel.text.efi_locate_handle_buffer
                0x0000000080862fdc        0x8 arch/arm/cpu/armv7/start.o
 .rel.text.efi_protocols_per_handle
                0x0000000080862fe4        0x8 arch/arm/cpu/armv7/start.o
 .rel.text.efi_open_protocol_information
                0x0000000080862fec        0x8 arch/arm/cpu/armv7/start.o
 .rel.text.efi_open_protocol
                0x0000000080862ff4       0x10 arch/arm/cpu/armv7/start.o
 .rel.text.efi_disconnect_controller
                0x0000000080863004        0x8 arch/arm/cpu/armv7/start.o
 .rel.text.efi_connect_controller
                0x000000008086300c        0x8 arch/arm/cpu/armv7/start.o
 .rel.text.efi_set_watchdog_timer
                0x0000000080863014        0x8 arch/arm/cpu/armv7/start.o
 .rel.text.efi_stall
                0x000000008086301c        0x8 arch/arm/cpu/armv7/start.o
 .rel.text.efi_get_next_monotonic_count
                0x0000000080863024       0x10 arch/arm/cpu/armv7/start.o
 .rel.text.efi_exit_boot_services
                0x0000000080863034       0x10 arch/arm/cpu/armv7/start.o
 .rel.text.efi_unload_image
                0x0000000080863044       0x10 arch/arm/cpu/armv7/start.o
 .rel.text.efi_exit
                0x0000000080863054        0x8 arch/arm/cpu/armv7/start.o
 .rel.text.efi_start_image
                0x000000008086305c       0x18 arch/arm/cpu/armv7/start.o
 .rel.text.efi_load_image
                0x0000000080863074       0x18 arch/arm/cpu/armv7/start.o
 .rel.text.efi_install_configuration_table
                0x000000008086308c       0x18 arch/arm/cpu/armv7/start.o
 .rel.text.efi_locate_device_path
                0x00000000808630a4        0x8 arch/arm/cpu/armv7/start.o
 .rel.text.efi_locate_handle
                0x00000000808630ac       0x10 arch/arm/cpu/armv7/start.o
 .rel.text.efi_reinstall_protocol_interface
                0x00000000808630bc        0x8 arch/arm/cpu/armv7/start.o
 .rel.text.efi_install_protocol_interface
                0x00000000808630c4        0x8 arch/arm/cpu/armv7/start.o
 .rel.text.efi_check_event
                0x00000000808630cc        0x8 arch/arm/cpu/armv7/start.o
 .rel.text.efi_close_event
                0x00000000808630d4       0x10 arch/arm/cpu/armv7/start.o
 .rel.text.efi_signal_event
                0x00000000808630e4        0x8 arch/arm/cpu/armv7/start.o
 .rel.text.efi_set_timer
                0x00000000808630ec       0x18 arch/arm/cpu/armv7/start.o
 .rel.text.efi_create_event
                0x0000000080863104       0x10 arch/arm/cpu/armv7/start.o
 .rel.text.efi_free_pool
                0x0000000080863114        0x8 arch/arm/cpu/armv7/start.o
 .rel.text.efi_allocate_pool
                0x000000008086311c        0x8 arch/arm/cpu/armv7/start.o
 .rel.text.efi_restore_tpl
                0x0000000080863124        0x8 arch/arm/cpu/armv7/start.o
 .rel.text.efi_raise_tpl
                0x000000008086312c        0x8 arch/arm/cpu/armv7/start.o
 .rel.text.efi_close_protocol
                0x0000000080863134        0x8 arch/arm/cpu/armv7/start.o
 .rel.text.efi_uninstall_protocol_interface
                0x000000008086313c        0x8 arch/arm/cpu/armv7/start.o
 .rel.text.efi_register_protocol_notify
                0x0000000080863144        0x8 arch/arm/cpu/armv7/start.o
 .rel.text.efi_exit_func
                0x000000008086314c        0x8 arch/arm/cpu/armv7/start.o
 .rel.text.efi_timer_check
                0x0000000080863154        0x8 arch/arm/cpu/armv7/start.o
 .rel.text.efi_wait_for_event
                0x000000008086315c       0x10 arch/arm/cpu/armv7/start.o
 .rel.text.efi_runtime_relocate
                0x000000008086316c       0x28 arch/arm/cpu/armv7/start.o
 .rel.text.efi_set_virtual_address_map
                0x0000000080863194       0x20 arch/arm/cpu/armv7/start.o
 .rel.text.efi_cout_enable_cursor
                0x00000000808631b4        0x8 arch/arm/cpu/armv7/start.o
 .rel.text.efi_cout_set_cursor_position
                0x00000000808631bc       0x10 arch/arm/cpu/armv7/start.o
 .rel.text.efi_cout_clear_screen
                0x00000000808631cc        0x8 arch/arm/cpu/armv7/start.o
 .rel.text.efi_cout_output_string
                0x00000000808631d4       0x18 arch/arm/cpu/armv7/start.o
 .rel.text.efi_cout_query_mode
                0x00000000808631ec       0x20 arch/arm/cpu/armv7/start.o
 .rel.text.efi_find_free_memory
                0x000000008086320c        0x8 arch/arm/cpu/armv7/start.o
 .rel.text.efi_add_memory_map
                0x0000000080863214       0x10 arch/arm/cpu/armv7/start.o
 .rel.text.efi_get_memory_map
                0x0000000080863224        0x8 arch/arm/cpu/armv7/start.o
 .rel.text.efi_memory_init
                0x000000008086322c       0x10 arch/arm/cpu/armv7/start.o
 .rel.text.efi_disk_add_dev.isra.0
                0x000000008086323c       0x48 arch/arm/cpu/armv7/start.o
 .rel.text.efi_disk_register
                0x0000000080863284       0x28 arch/arm/cpu/armv7/start.o
 .rel.text.lzop_decompress
                0x00000000808632ac        0x8 arch/arm/cpu/armv7/start.o
 .rel.text.inflate_fast
                0x00000000808632b4       0x18 arch/arm/cpu/armv7/start.o
 .rel.text.inflate_table
                0x00000000808632cc       0x20 arch/arm/cpu/armv7/start.o
 .rel.text.inflateInit2_
                0x00000000808632ec       0x10 arch/arm/cpu/armv7/start.o
 .rel.text.inflate
                0x00000000808632fc       0xa0 arch/arm/cpu/armv7/start.o
 .rel.text.fdt_get_phandle
                0x000000008086339c        0x0 arch/arm/cpu/armv7/start.o
 .rel.text.fdt_get_alias_namelen
                0x000000008086339c        0x8 arch/arm/cpu/armv7/start.o
 .rel.text.fdt_node_check_compatible
                0x00000000808633a4        0x0 arch/arm/cpu/armv7/start.o
 .rel.text.fdt_strerror
                0x00000000808633a4       0x20 arch/arm/cpu/armv7/start.o
 .rel.text.fdt_create_empty_tree
                0x00000000808633c4        0x0 arch/arm/cpu/armv7/start.o
 .rel.text.fdt_address_cells
                0x00000000808633c4        0x8 arch/arm/cpu/armv7/start.o
 .rel.text.fdt_size_cells
                0x00000000808633cc        0x8 arch/arm/cpu/armv7/start.o
 .rel.text.fdt_add_alias_regions
                0x00000000808633d4        0x0 arch/arm/cpu/armv7/start.o
 .rel.text.fdt_next_region
                0x00000000808633d4        0x0 arch/arm/cpu/armv7/start.o
 .rel.text.crc7
                0x00000000808633d4        0x0 arch/arm/cpu/armv7/start.o
 .rel.text.crc16_ccitt
                0x00000000808633d4        0x8 arch/arm/cpu/armv7/start.o
 .rel.text.zunzip
                0x00000000808633dc       0x28 arch/arm/cpu/armv7/start.o
 .rel.text.gunzip
                0x0000000080863404       0x10 arch/arm/cpu/armv7/start.o
 .rel.text.initcall_run_list
                0x0000000080863414        0x8 arch/arm/cpu/armv7/start.o
 .rel.text.lmb_alloc_base
                0x000000008086341c        0x8 arch/arm/cpu/armv7/start.o
 .rel.text.sha1_finish
                0x0000000080863424        0x8 arch/arm/cpu/armv7/start.o
 .rel.text.sha256_finish
                0x000000008086342c        0x8 arch/arm/cpu/armv7/start.o
 .rel.text.strmhz
                0x0000000080863434        0x0 arch/arm/cpu/armv7/start.o
 .rel.text.list_sort
                0x0000000080863434        0x8 arch/arm/cpu/armv7/start.o
 .rel.text.match_string
                0x000000008086343c        0x8 arch/arm/cpu/armv7/start.o
 .rel.text.match_entry
                0x0000000080863444        0x8 arch/arm/cpu/armv7/start.o
 .rel.text.hcreate_r
                0x000000008086344c        0x8 arch/arm/cpu/armv7/start.o
 .rel.text.hdestroy_r
                0x0000000080863454        0x8 arch/arm/cpu/armv7/start.o
 .rel.text.hmatch_r
                0x000000008086345c        0x8 arch/arm/cpu/armv7/start.o
 .rel.text.hsearch_r
                0x0000000080863464        0x8 arch/arm/cpu/armv7/start.o
 .rel.text.hdelete_r
                0x000000008086346c        0x8 arch/arm/cpu/armv7/start.o
 .rel.text.hexport_r
                0x0000000080863474       0x18 arch/arm/cpu/armv7/start.o
 .rel.text.himport_r
                0x000000008086348c       0x20 arch/arm/cpu/armv7/start.o
 .rel.text.display_options
                0x00000000808634ac       0x10 arch/arm/cpu/armv7/start.o
 .rel.text.print_freq
                0x00000000808634bc        0x0 arch/arm/cpu/armv7/start.o
 .rel.text.print_size
                0x00000000808634bc       0x28 arch/arm/cpu/armv7/start.o
 .rel.text.print_buffer
                0x00000000808634e4       0x28 arch/arm/cpu/armv7/start.o
 .rel.text.crc32_no_comp
                0x000000008086350c        0x8 arch/arm/cpu/armv7/start.o
 .rel.text.hang
                0x0000000080863514        0x8 arch/arm/cpu/armv7/start.o
 .rel.text.skip_spaces
                0x000000008086351c        0x8 arch/arm/cpu/armv7/start.o
 .rel.text.strim
                0x0000000080863524        0x8 arch/arm/cpu/armv7/start.o
 .rel.text.emit
                0x000000008086352c        0x8 arch/arm/cpu/armv7/start.o
 .rel.text.store_char_in_data
                0x0000000080863534        0x8 arch/arm/cpu/armv7/start.o
 .rel.text.match
                0x000000008086353c       0x10 arch/arm/cpu/armv7/start.o
 .rel.text.quantifier
                0x000000008086354c        0x8 arch/arm/cpu/armv7/start.o
 .rel.text.fixup_branch
                0x0000000080863554        0x8 arch/arm/cpu/armv7/start.o
 .rel.text.compile
                0x000000008086355c       0x28 arch/arm/cpu/armv7/start.o
 .rel.text.slre_compile
                0x0000000080863584        0x8 arch/arm/cpu/armv7/start.o
 .rel.text.strncasecmp
                0x000000008086358c        0x8 arch/arm/cpu/armv7/start.o
 .rel.text.strtok
                0x0000000080863594        0x8 arch/arm/cpu/armv7/start.o
 .rel.text.uuid_str_valid
                0x000000008086359c        0x8 arch/arm/cpu/armv7/start.o
 .rel.text.uuid_bin_to_str
                0x00000000808635a4       0x18 arch/arm/cpu/armv7/start.o
 .rel.text.string
                0x00000000808635bc        0x8 arch/arm/cpu/armv7/start.o
 .rel.text.number
                0x00000000808635c4        0x8 arch/arm/cpu/armv7/start.o
 .rel.text.vsnprintf_internal
                0x00000000808635cc       0x10 arch/arm/cpu/armv7/start.o
 .rel.text.__assert_fail
                0x00000000808635dc        0x0 arch/arm/cpu/armv7/start.o
 .rel.text.simple_itoa
                0x00000000808635dc        0x8 arch/arm/cpu/armv7/start.o
 .rel.text.print_grouped_ull
                0x00000000808635e4        0x0 arch/arm/cpu/armv7/start.o
 .rel.text.simple_strtoul
                0x00000000808635e4        0x8 arch/arm/cpu/armv7/start.o
 .rel.text.simple_strtoull
                0x00000000808635ec        0x8 arch/arm/cpu/armv7/start.o
 .rel.text.trailing_strtoln
                0x00000000808635f4        0x8 arch/arm/cpu/armv7/start.o
 .rel.rodata.efi_boot_services
                0x00000000808635fc      0x150 arch/arm/cpu/armv7/start.o
 .rel.rodata.efi_con_out
                0x000000008086374c       0x50 arch/arm/cpu/armv7/start.o
 .rel.rodata.efi_console_control
                0x000000008086379c       0x18 arch/arm/cpu/armv7/start.o
 .rel.rodata.efi_con_in
                0x00000000808637b4       0x10 arch/arm/cpu/armv7/start.o
 .rel.rodata.z_errmsg
                0x00000000808637c4        0x0 arch/arm/cpu/armv7/start.o
 .rel.rodata.fdt_errtable
                0x00000000808637c4       0x58 arch/arm/cpu/armv7/start.o
 .relefi_runtime_data
                0x000000008086381c       0x90 arch/arm/cpu/armv7/start.o
 .rel.data.loaded_image_info_obj.8667
                0x00000000808638ac       0x10 arch/arm/cpu/armv7/start.o
 .rel.data.efi_obj_list
                0x00000000808638bc       0x10 arch/arm/cpu/armv7/start.o
 .rel.data.efi_mem
                0x00000000808638cc       0x10 arch/arm/cpu/armv7/start.o
 .rel.data.current
                0x00000000808638dc        0x0 arch/arm/cpu/armv7/start.o
 .rel.text.arp_init
                0x00000000808638dc       0x30 arch/arm/cpu/armv7/start.o
 .rel.text.arp_raw_request
                0x000000008086390c       0x18 arch/arm/cpu/armv7/start.o
 .rel.text.arp_request
                0x0000000080863924       0x38 arch/arm/cpu/armv7/start.o
 .rel.text.arp_timeout_check
                0x000000008086395c       0x28 arch/arm/cpu/armv7/start.o
 .rel.text.arp_receive
                0x0000000080863984       0x40 arch/arm/cpu/armv7/start.o
 .rel.text.dhcp_extended
                0x00000000808639c4       0x20 arch/arm/cpu/armv7/start.o
 .rel.text.dhcp_process_options
                0x00000000808639e4       0x70 arch/arm/cpu/armv7/start.o
 .rel.text.dhcp_packet_process_options
                0x0000000080863a54        0x8 arch/arm/cpu/armv7/start.o
 .rel.text.dhcp_handler
                0x0000000080863a5c       0x90 arch/arm/cpu/armv7/start.o
 .rel.text.bootp_reset
                0x0000000080863aec       0x20 arch/arm/cpu/armv7/start.o
 .rel.text.bootp_request
                0x0000000080863b0c       0x78 arch/arm/cpu/armv7/start.o
 .rel.text.bootp_timeout_handler
                0x0000000080863b84       0x28 arch/arm/cpu/armv7/start.o
 .rel.text.on_ethaddr
                0x0000000080863bac        0x8 arch/arm/cpu/armv7/start.o
 .rel.text.eth_set_current_to_next
                0x0000000080863bb4        0x8 arch/arm/cpu/armv7/start.o
 .rel.text.eth_set_dev
                0x0000000080863bbc        0x8 arch/arm/cpu/armv7/start.o
 .rel.text.eth_get_dev_by_name
                0x0000000080863bc4       0x28 arch/arm/cpu/armv7/start.o
 .rel.text.eth_get_dev_by_index
                0x0000000080863bec        0x8 arch/arm/cpu/armv7/start.o
 .rel.text.eth_get_dev_index
                0x0000000080863bf4        0x8 arch/arm/cpu/armv7/start.o
 .rel.text.eth_write_hwaddr
                0x0000000080863bfc       0x30 arch/arm/cpu/armv7/start.o
 .rel.text.eth_register
                0x0000000080863c2c       0x18 arch/arm/cpu/armv7/start.o
 .rel.text.eth_unregister
                0x0000000080863c44       0x10 arch/arm/cpu/armv7/start.o
 .rel.text.eth_initialize
                0x0000000080863c54       0x78 arch/arm/cpu/armv7/start.o
 .rel.text.eth_init
                0x0000000080863ccc       0x10 arch/arm/cpu/armv7/start.o
 .rel.text.eth_halt
                0x0000000080863cdc        0x8 arch/arm/cpu/armv7/start.o
 .rel.text.eth_send
                0x0000000080863ce4        0x8 arch/arm/cpu/armv7/start.o
 .rel.text.eth_rx
                0x0000000080863cec        0x8 arch/arm/cpu/armv7/start.o
 .rel.text.eth_setenv_enetaddr
                0x0000000080863cf4        0x8 arch/arm/cpu/armv7/start.o
 .rel.text.eth_getenv_enetaddr_by_index
                0x0000000080863cfc       0x10 arch/arm/cpu/armv7/start.o
 .rel.text.eth_setenv_enetaddr_by_index
                0x0000000080863d0c       0x10 arch/arm/cpu/armv7/start.o
 .rel.text.eth_mac_skip
                0x0000000080863d1c       0x10 arch/arm/cpu/armv7/start.o
 .rel.text.eth_get_name
                0x0000000080863d2c       0x10 arch/arm/cpu/armv7/start.o
 .rel.text.eth_current_changed
                0x0000000080863d3c       0x20 arch/arm/cpu/armv7/start.o
 .rel.text.eth_try_another
                0x0000000080863d5c       0x28 arch/arm/cpu/armv7/start.o
 .rel.text.eth_set_current
                0x0000000080863d84       0x20 arch/arm/cpu/armv7/start.o
 .rel.text.net_clear_handlers
                0x0000000080863da4       0x20 arch/arm/cpu/armv7/start.o
 .rel.text.start_again_timeout_handler
                0x0000000080863dc4        0x8 arch/arm/cpu/armv7/start.o
 .rel.text.on_ipaddr
                0x0000000080863dcc        0x8 arch/arm/cpu/armv7/start.o
 .rel.text.on_gatewayip
                0x0000000080863dd4        0x8 arch/arm/cpu/armv7/start.o
 .rel.text.on_netmask
                0x0000000080863ddc        0x8 arch/arm/cpu/armv7/start.o
 .rel.text.on_serverip
                0x0000000080863de4        0x8 arch/arm/cpu/armv7/start.o
 .rel.text.net_init_loop
                0x0000000080863dec       0x10 arch/arm/cpu/armv7/start.o
 .rel.text.net_auto_load
                0x0000000080863dfc       0x18 arch/arm/cpu/armv7/start.o
 .rel.text.net_init
                0x0000000080863e14       0x20 arch/arm/cpu/armv7/start.o
 .rel.text.net_start_again
                0x0000000080863e34       0x78 arch/arm/cpu/armv7/start.o
 .rel.text.net_loop
                0x0000000080863eac      0x110 arch/arm/cpu/armv7/start.o
 .rel.text.net_get_udp_handler
                0x0000000080863fbc        0x0 arch/arm/cpu/armv7/start.o
 .rel.text.net_set_udp_handler
                0x0000000080863fbc       0x10 arch/arm/cpu/armv7/start.o
 .rel.text.net_get_arp_handler
                0x0000000080863fcc        0x8 arch/arm/cpu/armv7/start.o
 .rel.text.net_set_arp_handler
                0x0000000080863fd4        0x0 arch/arm/cpu/armv7/start.o
 .rel.text.net_set_timeout_handler
                0x0000000080863fd4       0x18 arch/arm/cpu/armv7/start.o
 .rel.text.net_process_received_packet
                0x0000000080863fec       0x38 arch/arm/cpu/armv7/start.o
 .rel.text.net_eth_hdr_size
                0x0000000080864024        0x8 arch/arm/cpu/armv7/start.o
 .rel.text.net_set_ether
                0x000000008086402c       0x10 arch/arm/cpu/armv7/start.o
 .rel.text.net_update_ether
                0x000000008086403c        0x8 arch/arm/cpu/armv7/start.o
 .rel.text.net_set_ip_header
                0x0000000080864044        0x8 arch/arm/cpu/armv7/start.o
 .rel.text.net_set_udp_header
                0x000000008086404c        0x8 arch/arm/cpu/armv7/start.o
 .rel.text.net_send_udp_packet
                0x0000000080864054       0x40 arch/arm/cpu/armv7/start.o
 .rel.text.on_bootfile
                0x0000000080864094        0x8 arch/arm/cpu/armv7/start.o
 .rel.text.ip_to_string
                0x000000008086409c        0x8 arch/arm/cpu/armv7/start.o
 .rel.text.vlan_to_string
                0x00000000808640a4        0x0 arch/arm/cpu/armv7/start.o
 .rel.text.on_nvlan
                0x00000000808640a4        0x8 arch/arm/cpu/armv7/start.o
 .rel.text.on_vlan
                0x00000000808640ac        0x8 arch/arm/cpu/armv7/start.o
 .rel.text.rpc_lookup_reply
                0x00000000808640b4       0x18 arch/arm/cpu/armv7/start.o
 .rel.text.nfs_mount_reply
                0x00000000808640cc       0x18 arch/arm/cpu/armv7/start.o
 .rel.text.nfs_umountall_reply
                0x00000000808640e4       0x18 arch/arm/cpu/armv7/start.o
 .rel.text.nfs_lookup_reply
                0x00000000808640fc       0x10 arch/arm/cpu/armv7/start.o
 .rel.text.nfs_readlink_reply
                0x000000008086410c       0x18 arch/arm/cpu/armv7/start.o
 .rel.text.rpc_add_credentials
                0x0000000080864124        0x8 arch/arm/cpu/armv7/start.o
 .rel.text.rpc_req
                0x000000008086412c       0x38 arch/arm/cpu/armv7/start.o
 .rel.text.nfs_umountall_req
                0x0000000080864164       0x10 arch/arm/cpu/armv7/start.o
 .rel.text.nfs_lookup_req
                0x0000000080864174        0x8 arch/arm/cpu/armv7/start.o
 .rel.text.nfs_read_req
                0x000000008086417c        0x8 arch/arm/cpu/armv7/start.o
 .rel.text.nfs_readlink_req
                0x0000000080864184        0x8 arch/arm/cpu/armv7/start.o
 .rel.text.nfs_read_reply.isra.0
                0x000000008086418c       0x28 arch/arm/cpu/armv7/start.o
 .rel.text.nfs_send
                0x00000000808641b4       0x28 arch/arm/cpu/armv7/start.o
 .rel.text.nfs_handler
                0x00000000808641dc       0x70 arch/arm/cpu/armv7/start.o
 .rel.text.nfs_timeout_handler
                0x000000008086424c       0x20 arch/arm/cpu/armv7/start.o
 .rel.text.nfs_start
                0x000000008086426c       0xe0 arch/arm/cpu/armv7/start.o
 .rel.text.ping_timeout_handler
                0x000000008086434c        0x8 arch/arm/cpu/armv7/start.o
 .rel.text.ping_start
                0x0000000080864354       0x58 arch/arm/cpu/armv7/start.o
 .rel.text.ping_receive
                0x00000000808643ac       0x18 arch/arm/cpu/armv7/start.o
 .rel.text.tftp_send
                0x00000000808643c4       0x80 arch/arm/cpu/armv7/start.o
 .rel.text.tftp_handler
                0x0000000080864444       0xd0 arch/arm/cpu/armv7/start.o
 .rel.text.tftp_timeout_handler
                0x0000000080864514       0x40 arch/arm/cpu/armv7/start.o
 .rel.text.tftp_start
                0x0000000080864554      0x140 arch/arm/cpu/armv7/start.o
 .rel.u_boot_list_2_env_clbk_2_ethaddr
                0x0000000080864694       0x10 arch/arm/cpu/armv7/start.o
 .rel.u_boot_list_2_env_clbk_2_ipaddr
                0x00000000808646a4       0x10 arch/arm/cpu/armv7/start.o
 .rel.u_boot_list_2_env_clbk_2_vlan
                0x00000000808646b4       0x10 arch/arm/cpu/armv7/start.o
 .rel.u_boot_list_2_env_clbk_2_serverip
                0x00000000808646c4       0x10 arch/arm/cpu/armv7/start.o
 .rel.u_boot_list_2_env_clbk_2_bootfile
                0x00000000808646d4       0x10 arch/arm/cpu/armv7/start.o
 .rel.u_boot_list_2_env_clbk_2_netmask
                0x00000000808646e4       0x10 arch/arm/cpu/armv7/start.o
 .rel.u_boot_list_2_env_clbk_2_nvlan
                0x00000000808646f4       0x10 arch/arm/cpu/armv7/start.o
 .rel.u_boot_list_2_env_clbk_2_gatewayip
                0x0000000080864704       0x10 arch/arm/cpu/armv7/start.o
 .rel.text.do_dm
                0x0000000080864714        0x8 arch/arm/cpu/armv7/start.o
 .rel.u_boot_list_2_cmd_2_dm
                0x000000008086471c       0x20 arch/arm/cpu/armv7/start.o
 .rel.data.test_commands
                0x000000008086473c       0x60 arch/arm/cpu/armv7/start.o
 .rel.text.raise
                0x000000008086479c        0x8 arch/arm/cpu/armv7/start.o

.rel_dyn_end    0x00000000808647a4        0x0
 *(.__rel_dyn_end)
 .__rel_dyn_end
                0x00000000808647a4        0x0 arch/arm/lib/built-in.o

.hash           0x00000000808647a4       0x2c
 *(.hash*)
 .hash          0x00000000808647a4       0x2c arch/arm/cpu/armv7/start.o

.end            0x00000000808647d0        0x0
 *(.__end)
 .__end         0x00000000808647d0        0x0 arch/arm/lib/built-in.o
                0x00000000808647d0                _image_binary_end = .
                0x0000000080865000                . = ALIGN (0x1000)

.mmutable
 *(.mmutable)

.bss_start      0x0000000080859e6c        0x0
 *(.__bss_start)
 .__bss_start   0x0000000080859e6c        0x0 arch/arm/lib/built-in.o
                0x0000000080859e6c                __bss_start
                0x0000000080859e6c                __bss_base = .

.bss            0x0000000080859e6c    0x4cbc4
 *(.bss*)
 .bss.params    0x0000000080859e6c        0x4 arch/arm/lib/built-in.o
 .bss.images    0x0000000080859e70      0x164 cmd/built-in.o
                0x0000000080859e70                images
 .bss.data.8080
                0x0000000080859fd4      0x400 cmd/built-in.o
 .bss.working_fdt
                0x000000008085a3d4        0x4 cmd/built-in.o
                0x000000008085a3d4                working_fdt
 .bss.i2c_mm_last_addr
                0x000000008085a3d8        0x4 cmd/built-in.o
 .bss.i2c_mm_last_chip
                0x000000008085a3dc        0x4 cmd/built-in.o
 .bss.i2c_dp_last_chip
                0x000000008085a3e0        0x4 cmd/built-in.o
 .bss.i2c_mm_last_alen
                0x000000008085a3e4        0x4 cmd/built-in.o
 .bss.i2c_dp_last_addr
                0x000000008085a3e8        0x4 cmd/built-in.o
 .bss.i2c_dp_last_alen
                0x000000008085a3ec        0x4 cmd/built-in.o
 .bss.send_parms
                0x000000008085a3f0       0x14 cmd/built-in.o
 .bss.os_data_addr_saved
                0x000000008085a404        0x4 cmd/built-in.o
 .bss.his_pad_char
                0x000000008085a408        0x1 cmd/built-in.o
 .bss.a_b       0x000000008085a409       0x18 cmd/built-in.o
 *fill*         0x000000008085a421        0x3 
 .bss.os_data_char
                0x000000008085a424        0x4 cmd/built-in.o
 .bss.os_data_state
                0x000000008085a428        0x4 cmd/built-in.o
 .bss.k_data_escape
                0x000000008085a42c        0x4 cmd/built-in.o
 .bss.os_data_state_saved
                0x000000008085a430        0x4 cmd/built-in.o
 .bss.os_data_addr
                0x000000008085a434        0x4 cmd/built-in.o
 .bss.send_ptr  0x000000008085a438        0x4 cmd/built-in.o
 .bss.his_pad_count
                0x000000008085a43c        0x4 cmd/built-in.o
 .bss.bin_start_address
                0x000000008085a440        0x4 cmd/built-in.o
 .bss.his_quote
                0x000000008085a444        0x1 cmd/built-in.o
 *fill*         0x000000008085a445        0x3 
 .bss.os_data_init
                0x000000008085a448        0x4 cmd/built-in.o
 .bss.his_eol   0x000000008085a44c        0x1 cmd/built-in.o
 *fill*         0x000000008085a44d        0x3 
 .bss.k_data_escape_saved
                0x000000008085a450        0x4 cmd/built-in.o
 .bss.dp_last_addr
                0x000000008085a454        0x4 cmd/built-in.o
 .bss.base_address
                0x000000008085a458        0x4 cmd/built-in.o
 .bss.mm_last_size
                0x000000008085a45c        0x4 cmd/built-in.o
 .bss.mm_last_addr
                0x000000008085a460        0x4 cmd/built-in.o
 .bss.dp_last_size
                0x000000008085a464        0x4 cmd/built-in.o
 .bss.last_data
                0x000000008085a468        0x8 cmd/built-in.o
 .bss.last_reg_hi
                0x000000008085a470        0x8 cmd/built-in.o
 .bss.last_mask
                0x000000008085a478        0x4 cmd/built-in.o
 .bss.last_addr_lo
                0x000000008085a47c        0x8 cmd/built-in.o
 .bss.last_op   0x000000008085a484        0x4 cmd/built-in.o
 .bss.last_addr_hi
                0x000000008085a488        0x8 cmd/built-in.o
 .bss.last_reg_lo
                0x000000008085a490        0x8 cmd/built-in.o
 .bss.last_devad_hi
                0x000000008085a498        0x4 cmd/built-in.o
 .bss.last_devad_lo
                0x000000008085a49c        0x4 cmd/built-in.o
 .bss.last_ids  0x000000008085a4a0       0x80 cmd/built-in.o
 .bss.current_mtd_dev
                0x000000008085a520        0x4 cmd/built-in.o
                0x000000008085a520                current_mtd_dev
 .bss.initialized.8908
                0x000000008085a524        0x4 cmd/built-in.o
 .bss.last_partition
                0x000000008085a528       0x10 cmd/built-in.o
 .bss.last_parts
                0x000000008085a538      0x200 cmd/built-in.o
 .bss.current_mtd_partnum
                0x000000008085a738        0x1 cmd/built-in.o
                0x000000008085a738                current_mtd_partnum
 *fill*         0x000000008085a739        0x3 
 .bss.mtdids    0x000000008085a73c        0x8 cmd/built-in.o
 .bss.devices   0x000000008085a744        0x8 cmd/built-in.o
 .bss.do_getfile
                0x000000008085a74c        0x4 cmd/built-in.o
 .bss.is_pxe    0x000000008085a750        0x1 cmd/built-in.o
 *fill*         0x000000008085a751        0x3 
 .bss.fs_argv   0x000000008085a754       0x14 cmd/built-in.o
 .bss.ubi       0x000000008085a768        0x4 cmd/built-in.o
 .bss.ubi_dev   0x000000008085a76c       0x5c cmd/built-in.o
 .bss.ubi_initialized
                0x000000008085a7c8        0x4 cmd/built-in.o
 .bss.buffer    0x000000008085a7cc       0x50 cmd/built-in.o
 .bss.ubifs_initialized
                0x000000008085a81c        0x4 cmd/built-in.o
 .bss.ubifs_mounted
                0x000000008085a820        0x4 cmd/built-in.o
 .bss.flag_repeat
                0x000000008085a824        0x4 common/built-in.o
 .bss.the_command.8223
                0x000000008085a828      0x201 common/built-in.o
 .bss.buf.8423  0x000000008085aa29       0x28 common/built-in.o
 *fill*         0x000000008085aa51        0x3 
 .bss.ifs       0x000000008085aa54        0x4 common/built-in.o
 .bss.last_return_code
                0x000000008085aa58        0x4 common/built-in.o
 .bss.map       0x000000008085aa5c      0x100 common/built-in.o
 .bss.do_repeat
                0x000000008085ab5c        0x4 common/built-in.o
 .bss.top_vars  0x000000008085ab60        0x4 common/built-in.o
 .bss.stored_bootdelay
                0x000000008085ab64        0x4 common/built-in.o
 .bss.monitor_flash_len
                0x000000008085ab68        0x4 common/built-in.o
                0x000000008085ab68                monitor_flash_len
 .bss.callback_list
                0x000000008085ab6c        0x4 common/built-in.o
 .bss.flags_list
                0x000000008085ab70        0x4 common/built-in.o
 .bss.current_mii
                0x000000008085ab74        0x4 common/built-in.o
 .bss.mii_devs  0x000000008085ab78        0x8 common/built-in.o
 .bss.dev_index
                0x000000008085ab80        0x4 common/built-in.o
 *fill*         0x000000008085ab84       0x3c 
 .bss.usb_dev   0x000000008085abc0    0x13000 common/built-in.o
 .bss.asynch_allowed
                0x000000008086dbc0        0x4 common/built-in.o
 .bss.usb_started
                0x000000008086dbc4        0x1 common/built-in.o
                0x000000008086dbc4                usb_started
 *fill*         0x000000008086dbc5        0x3 
 .bss.running.9977
                0x000000008086dbc8        0x4 common/built-in.o
 .bss.usb_hub_index
                0x000000008086dbcc        0x4 common/built-in.o
 .bss.hub_dev   0x000000008086dbd0      0x380 common/built-in.o
 .bss.usb_stor  0x000000008086df50      0x16c common/built-in.o
 .bss.usb_dev_desc
                0x000000008086e0bc      0x32c common/built-in.o
 .bss.usb_max_devs
                0x000000008086e3e8        0x4 common/built-in.o
 .bss.CBWTag    0x000000008086e3ec        0x4 common/built-in.o
 *fill*         0x000000008086e3f0       0x10 
 .bss.usb_ccb   0x000000008086e400       0xc0 common/built-in.o
 .bss.ctrlc_was_pressed
                0x000000008086e4c0        0x4 common/built-in.o
 .bss.ctrlc_disabled
                0x000000008086e4c4        0x4 common/built-in.o
 .bss.max_total_mem
                0x000000008086e4c8        0x4 common/built-in.o
 .bss.mem_malloc_brk
                0x000000008086e4cc        0x4 common/built-in.o
                0x000000008086e4cc                mem_malloc_brk
 .bss.max_sbrked_mem
                0x000000008086e4d0        0x4 common/built-in.o
 .bss.current_mallinfo
                0x000000008086e4d4       0x28 common/built-in.o
 .bss.mem_malloc_end
                0x000000008086e4fc        0x4 common/built-in.o
                0x000000008086e4fc                mem_malloc_end
 .bss.top_pad   0x000000008086e500        0x4 common/built-in.o
 .bss.mem_malloc_start
                0x000000008086e504        0x4 common/built-in.o
                0x000000008086e504                mem_malloc_start
 .bss.stdio_devices
                0x000000008086e508        0xc common/built-in.o
                0x000000008086e508                stdio_devices
 .bss.devs      0x000000008086e514       0x4c common/built-in.o
 .bss.hist_list
                0x000000008086e560       0x50 common/built-in.o
 .bss.hist_lines
                0x000000008086e5b0     0x2814 common/built-in.o
 .bss.hist_max  0x0000000080870dc4        0x4 common/built-in.o
 .bss.initted.8075
                0x0000000080870dc8        0x4 common/built-in.o
 .bss.hist_add_idx
                0x0000000080870dcc        0x4 common/built-in.o
 .bss.hist_num  0x0000000080870dd0        0x4 common/built-in.o
 .bss.console_buffer
                0x0000000080870dd4      0x201 common/built-in.o
                0x0000000080870dd4                console_buffer
 .bss.tmp_buf   0x0000000080870fd5      0x200 common/built-in.o
 .bss.tmp_buf.7980
                0x00000000808711d5      0x200 common/built-in.o
 *fill*         0x00000000808713d5        0x3 
 .bss.xyz       0x00000000808713d8      0x434 common/built-in.o
 .bss.tmpbuf    0x000000008087180c      0x800 disk/built-in.o
 .bss.name.8063
                0x000000008087200c       0x25 disk/built-in.o
 *fill*         0x0000000080872031        0x3 
 .bss.initialized.9757
                0x0000000080872034        0x4 drivers/mmc/built-in.o
 .bss.mmc_devices
                0x0000000080872038        0x8 drivers/mmc/built-in.o
 .bss.mtd_idr   0x0000000080872040      0x200 drivers/mtd/built-in.o
 .bss.vidh      0x0000000080872240        0x4 drivers/mtd/ubi/built-in.o
 .bss.ech       0x0000000080872244        0x4 drivers/mtd/ubi/built-in.o
 .bss.mtd_devs  0x0000000080872248        0x4 drivers/mtd/ubi/built-in.o
 .bss.ubi_wl_entry_slab
                0x000000008087224c        0x4 drivers/mtd/ubi/built-in.o
                0x000000008087224c                ubi_wl_entry_slab
 .bss.ubi_devices
                0x0000000080872250       0x80 drivers/mtd/ubi/built-in.o
                0x0000000080872250                ubi_devices
 .bss.mtd_dev_param
                0x00000000808722d0      0x980 drivers/mtd/ubi/built-in.o
 .bss.empty_vtbl_record
                0x0000000080872c50       0xac drivers/mtd/ubi/built-in.o
 .bss.mdio_regs
                0x0000000080872cfc        0x4 drivers/net/built-in.o
 .bss.epnum     0x0000000080872d00        0x4 drivers/usb/gadget/built-in.o
 .bss.eth_priv  0x0000000080872d04      0x110 drivers/usb/gadget/built-in.o
                0x0000000080872d04                eth_priv
 .bss.rndis_resp_buf
                0x0000000080872e14        0x8 drivers/usb/gadget/built-in.o
 *fill*         0x0000000080872e1c       0x24 
 .bss.__control_req
                0x0000000080872e40      0x100 drivers/usb/gadget/built-in.o
 .bss.__status_req
                0x0000000080872f40       0x40 drivers/usb/gadget/built-in.o
 .bss.manufacturer
                0x0000000080872f80       0x32 drivers/usb/gadget/built-in.o
 *fill*         0x0000000080872fb2        0x2 
 .bss.packet_sent
                0x0000000080872fb4        0x4 drivers/usb/gadget/built-in.o
                0x0000000080872fb4                packet_sent
 .bss.packet_received
                0x0000000080872fb8        0x4 drivers/usb/gadget/built-in.o
                0x0000000080872fb8                packet_received
 .bss.serial_number
                0x0000000080872fbc       0x14 drivers/usb/gadget/built-in.o
 .bss.ethaddr   0x0000000080872fd0        0xd drivers/usb/gadget/built-in.o
 .bss.host_addr
                0x0000000080872fdd       0x12 drivers/usb/gadget/built-in.o
 .bss.dev_addr  0x0000000080872fef       0x12 drivers/usb/gadget/built-in.o
 *fill*         0x0000000080873001        0x3 
 .bss.rndis_per_dev_params
                0x0000000080873004       0x3c drivers/usb/gadget/built-in.o
 .bss.musb_host
                0x0000000080873040       0x60 drivers/usb/musb-new/built-in.o
                0x0000000080873040                musb_host
 .bss.gadget    0x00000000808730a0        0x4 drivers/usb/musb-new/built-in.o
 .bss.fs_partition
                0x00000000808730a4       0x78 fs/built-in.o
 .bss.fs_type   0x000000008087311c        0x4 fs/built-in.o
 .bss.fs_dev_desc
                0x0000000080873120        0x4 fs/built-in.o
 *fill*         0x0000000080873124        0x4 
 .bss.ext_fs    0x0000000080873128       0x48 fs/built-in.o
                0x0000000080873128                ext_fs
 .bss.ext4fs_indir3_block
                0x0000000080873170        0x4 fs/built-in.o
                0x0000000080873170                ext4fs_indir3_block
 .bss.ext4fs_root
                0x0000000080873174        0x4 fs/built-in.o
                0x0000000080873174                ext4fs_root
 .bss.ext4fs_indir3_size
                0x0000000080873178        0x4 fs/built-in.o
                0x0000000080873178                ext4fs_indir3_size
 .bss.ext4fs_indir1_block
                0x000000008087317c        0x4 fs/built-in.o
                0x000000008087317c                ext4fs_indir1_block
 .bss.ext4fs_indir2_size
                0x0000000080873180        0x4 fs/built-in.o
                0x0000000080873180                ext4fs_indir2_size
 .bss.ext4fs_indir2_block
                0x0000000080873184        0x4 fs/built-in.o
                0x0000000080873184                ext4fs_indir2_block
 .bss.ext4fs_indir1_size
                0x0000000080873188        0x4 fs/built-in.o
                0x0000000080873188                ext4fs_indir1_size
 .bss.symlinknest
                0x000000008087318c        0x4 fs/built-in.o
 .bss.ext4fs_file
                0x0000000080873190        0x4 fs/built-in.o
                0x0000000080873190                ext4fs_file
 .bss.g_parent_inode
                0x0000000080873194        0x4 fs/built-in.o
                0x0000000080873194                g_parent_inode
 .bss.part_info
                0x0000000080873198        0x4 fs/built-in.o
 .bss.part_offset
                0x000000008087319c        0x4 fs/built-in.o
                0x000000008087319c                part_offset
 .bss.ext4fs_blk_desc
                0x00000000808731a0        0x4 fs/built-in.o
 .bss.journal_ptr
                0x00000000808731a4      0x190 fs/built-in.o
                0x00000000808731a4                journal_ptr
 .bss.revk_blk_list
                0x0000000080873334        0x4 fs/built-in.o
 .bss.gindex    0x0000000080873338        0x4 fs/built-in.o
                0x0000000080873338                gindex
 .bss.gd_index  0x000000008087333c        0x4 fs/built-in.o
                0x000000008087333c                gd_index
 .bss.dirty_block_ptr
                0x0000000080873340      0x190 fs/built-in.o
                0x0000000080873340                dirty_block_ptr
 .bss.prev_node
                0x00000000808734d0        0x4 fs/built-in.o
 .bss.jrnl_blk_idx
                0x00000000808734d4        0x4 fs/built-in.o
                0x00000000808734d4                jrnl_blk_idx
 *fill*         0x00000000808734d8       0x28 
 .bss.get_contents_vfatname_block
                0x0000000080873500    0x10000 fs/built-in.o
                0x0000000080873500                get_contents_vfatname_block
 .bss.do_fat_read_at_block
                0x0000000080883500    0x10000 fs/built-in.o
                0x0000000080883500                do_fat_read_at_block
 .bss.get_dentfromdir_block
                0x0000000080893500    0x10000 fs/built-in.o
                0x0000000080893500                get_dentfromdir_block
 .bss.empty_dentptr
                0x00000000808a3500        0x4 fs/built-in.o
 .bss.cur_part_info
                0x00000000808a3504       0x78 fs/built-in.o
 .bss.total_sector
                0x00000000808a357c        0x4 fs/built-in.o
 .bss.dir_curclust
                0x00000000808a3580        0x4 fs/built-in.o
 .bss.num_of_fats
                0x00000000808a3584        0x1 fs/built-in.o
 *fill*         0x00000000808a3585        0x3 
 .bss.cur_dev   0x00000000808a3588        0x4 fs/built-in.o
 .bss.ubifs_compressors
                0x00000000808a358c        0xc fs/built-in.o
                0x00000000808a358c                ubifs_compressors
 .bss.ubifs_clean_zn_cnt
                0x00000000808a3598        0x4 fs/built-in.o
                0x00000000808a3598                ubifs_clean_zn_cnt
 .bss.ubifs_sb  0x00000000808a359c        0x4 fs/built-in.o
                0x00000000808a359c                ubifs_sb
 .bss.inodes_locked_down
                0x00000000808a35a0      0x100 fs/built-in.o
 .bss.ubifs_inode_slab
                0x00000000808a36a0        0x4 fs/built-in.o
                0x00000000808a36a0                ubifs_inode_slab
 .bss.app_gd    0x00000000808a36a4        0x4 lib/built-in.o
 .bss.efi_gd    0x00000000808a36a8        0x4 lib/built-in.o
 *fill*         0x00000000808a36ac        0x4 
 .bss.mono.8710
                0x00000000808a36b0        0x8 lib/built-in.o
 .bss.console_size_queried
                0x00000000808a36b8        0x1 lib/built-in.o
 *fill*         0x00000000808a36b9        0x3 
 .bss.errno     0x00000000808a36bc        0x4 lib/built-in.o
                0x00000000808a36bc                errno
 .bss.___strtok
                0x00000000808a36c0        0x4 lib/built-in.o
                0x00000000808a36c0                ___strtok
 .bss.local.8161
                0x00000000808a36c4       0x16 lib/built-in.o
 .bss.arp_tx_packet_buf
                0x00000000808a36da      0x640 net/built-in.o
 *fill*         0x00000000808a3d1a        0x2 
 .bss.arp_wait_packet_ethaddr
                0x00000000808a3d1c        0x4 net/built-in.o
                0x00000000808a3d1c                arp_wait_packet_ethaddr
 .bss.arp_tx_packet
                0x00000000808a3d20        0x4 net/built-in.o
 .bss.arp_wait_tx_packet_size
                0x00000000808a3d24        0x4 net/built-in.o
                0x00000000808a3d24                arp_wait_tx_packet_size
 .bss.arp_wait_try
                0x00000000808a3d28        0x4 net/built-in.o
                0x00000000808a3d28                arp_wait_try
 .bss.net_arp_wait_reply_ip
                0x00000000808a3d2c        0x4 net/built-in.o
 .bss.net_arp_wait_packet_ip
                0x00000000808a3d30        0x4 net/built-in.o
                0x00000000808a3d30                net_arp_wait_packet_ip
 .bss.arp_wait_timer_start
                0x00000000808a3d34        0x4 net/built-in.o
                0x00000000808a3d34                arp_wait_timer_start
 .bss.dhcp_state
                0x00000000808a3d38        0x4 net/built-in.o
 .bss.net_hostname
                0x00000000808a3d3c       0x20 net/built-in.o
                0x00000000808a3d3c                net_hostname
 .bss.bootp_timeout
                0x00000000808a3d5c        0x4 net/built-in.o
                0x00000000808a3d5c                bootp_timeout
 .bss.dhcp_server_ip
                0x00000000808a3d60        0x4 net/built-in.o
 .bss.dhcp_option_overload
                0x00000000808a3d64        0x1 net/built-in.o
 *fill*         0x00000000808a3d65        0x3 
 .bss.time_taken_max
                0x00000000808a3d68        0x4 net/built-in.o
 .bss.net_root_path
                0x00000000808a3d6c       0x40 net/built-in.o
                0x00000000808a3d6c                net_root_path
 .bss.bootp_ids
                0x00000000808a3dac       0x10 net/built-in.o
                0x00000000808a3dac                bootp_ids
 .bss.bootp_num_ids
                0x00000000808a3dbc        0x4 net/built-in.o
                0x00000000808a3dbc                bootp_num_ids
 .bss.bootp_try
                0x00000000808a3dc0        0x4 net/built-in.o
                0x00000000808a3dc0                bootp_try
 .bss.bootp_start
                0x00000000808a3dc4        0x4 net/built-in.o
                0x00000000808a3dc4                bootp_start
 .bss.dhcp_leasetime
                0x00000000808a3dc8        0x4 net/built-in.o
 .bss.net_nis_domain
                0x00000000808a3dcc       0x20 net/built-in.o
                0x00000000808a3dcc                net_nis_domain
 .bss.eth_current
                0x00000000808a3dec        0x4 net/built-in.o
                0x00000000808a3dec                eth_current
 .bss.index.8504
                0x00000000808a3df0        0x4 net/built-in.o
 .bss.eth_devices
                0x00000000808a3df4        0x4 net/built-in.o
 .bss.env_changed_id.9608
                0x00000000808a3df8        0x4 net/built-in.o
 .bss.act.9607  0x00000000808a3dfc        0x4 net/built-in.o
 .bss.first_failed.9602
                0x00000000808a3e00        0x4 net/built-in.o
 .bss.net_ethaddr
                0x00000000808a3e04        0x6 net/built-in.o
                0x00000000808a3e04                net_ethaddr
 *fill*         0x00000000808a3e0a        0x2 
 .bss.net_dns_server
                0x00000000808a3e0c        0x4 net/built-in.o
                0x00000000808a3e0c                net_dns_server
 .bss.net_state
                0x00000000808a3e10        0x4 net/built-in.o
                0x00000000808a3e10                net_state
 .bss.net_server_ip
                0x00000000808a3e14        0x4 net/built-in.o
                0x00000000808a3e14                net_server_ip
 .bss.net_rx_packet
                0x00000000808a3e18        0x4 net/built-in.o
                0x00000000808a3e18                net_rx_packet
 .bss.net_boot_file_expected_size_in_blocks
                0x00000000808a3e1c        0x4 net/built-in.o
                0x00000000808a3e1c                net_boot_file_expected_size_in_blocks
 .bss.net_rx_packets
                0x00000000808a3e20       0x10 net/built-in.o
                0x00000000808a3e20                net_rx_packets
 .bss.time_start
                0x00000000808a3e30        0x8 net/built-in.o
 .bss.net_gateway
                0x00000000808a3e38        0x4 net/built-in.o
                0x00000000808a3e38                net_gateway
 .bss.net_boot_file_name
                0x00000000808a3e3c      0x400 net/built-in.o
                0x00000000808a3e3c                net_boot_file_name
 .bss.net_tx_packet
                0x00000000808a423c        0x4 net/built-in.o
                0x00000000808a423c                net_tx_packet
 .bss.udp_packet_handler
                0x00000000808a4240        0x4 net/built-in.o
 .bss.net_dev_exists
                0x00000000808a4244        0x4 net/built-in.o
 .bss.net_rx_packet_len
                0x00000000808a4248        0x4 net/built-in.o
                0x00000000808a4248                net_rx_packet_len
 .bss.net_server_ethaddr
                0x00000000808a424c        0x6 net/built-in.o
                0x00000000808a424c                net_server_ethaddr
 .bss.net_null_ethaddr
                0x00000000808a4252        0x6 net/built-in.o
                0x00000000808a4252                net_null_ethaddr
 .bss.net_ip_id
                0x00000000808a4258        0x4 net/built-in.o
 .bss.net_restart_wrap
                0x00000000808a425c        0x4 net/built-in.o
                0x00000000808a425c                net_restart_wrap
 .bss.net_try_count
                0x00000000808a4260        0x4 net/built-in.o
 .bss.net_restarted
                0x00000000808a4264        0x4 net/built-in.o
 .bss.time_delta
                0x00000000808a4268        0x4 net/built-in.o
 .bss.arp_packet_handler
                0x00000000808a426c        0x4 net/built-in.o
 .bss.net_netmask
                0x00000000808a4270        0x4 net/built-in.o
                0x00000000808a4270                net_netmask
 .bss.net_pkt_buf
                0x00000000808a4274     0x1e40 net/built-in.o
 .bss.net_ip    0x00000000808a60b4        0x4 net/built-in.o
                0x00000000808a60b4                net_ip
 .bss.time_handler
                0x00000000808a60b8        0x4 net/built-in.o
 .bss.net_dns_server2
                0x00000000808a60bc        0x4 net/built-in.o
                0x00000000808a60bc                net_dns_server2
 .bss.net_boot_file_size
                0x00000000808a60c0        0x4 net/built-in.o
                0x00000000808a60c0                net_boot_file_size
 .bss.nfs_server_mount_port
                0x00000000808a60c4        0x4 net/built-in.o
 .bss.nfs_server_ip
                0x00000000808a60c8        0x4 net/built-in.o
 .bss.nfs_filename
                0x00000000808a60cc        0x4 net/built-in.o
 .bss.nfs_state
                0x00000000808a60d0        0x4 net/built-in.o
 .bss.dirfh     0x00000000808a60d4       0x20 net/built-in.o
 .bss.nfs_len   0x00000000808a60f4        0x4 net/built-in.o
 .bss.rpc_id    0x00000000808a60f8        0x4 net/built-in.o
 .bss.fs_mounted
                0x00000000808a60fc        0x4 net/built-in.o
 .bss.default_filename
                0x00000000808a6100       0x4d net/built-in.o
 *fill*         0x00000000808a614d        0x3 
 .bss.nfs_server_port
                0x00000000808a6150        0x4 net/built-in.o
 .bss.nfs_download_state
                0x00000000808a6154        0x4 net/built-in.o
 .bss.nfs_path  0x00000000808a6158        0x4 net/built-in.o
 .bss.filefh    0x00000000808a615c       0x20 net/built-in.o
 .bss.nfs_path_buff
                0x00000000808a617c      0x800 net/built-in.o
 .bss.nfs_timeout_count
                0x00000000808a697c        0x4 net/built-in.o
 .bss.nfs_our_port
                0x00000000808a6980        0x4 net/built-in.o
 .bss.net_ping_ip
                0x00000000808a6984        0x4 net/built-in.o
                0x00000000808a6984                net_ping_ip
 .bss.ping_seq_number
                0x00000000808a6988        0x2 net/built-in.o
 *fill*         0x00000000808a698a        0x2 
 .bss.tftp_prev_block
                0x00000000808a698c        0x4 net/built-in.o
 .bss.timeout_count
                0x00000000808a6990        0x4 net/built-in.o
 .bss.tftp_block_wrap
                0x00000000808a6994        0x4 net/built-in.o
 .bss.tftp_remote_port
                0x00000000808a6998        0x4 net/built-in.o
 .bss.tftp_cur_block
                0x00000000808a699c        0x4 net/built-in.o
 .bss.tftp_remote_ip
                0x00000000808a69a0        0x4 net/built-in.o
 .bss.tftp_our_port
                0x00000000808a69a4        0x4 net/built-in.o
 .bss.tftp_state
                0x00000000808a69a8        0x4 net/built-in.o
 .bss.tftp_filename
                0x00000000808a69ac       0x80 net/built-in.o
 .bss.tftp_block_wrap_offset
                0x00000000808a6a2c        0x4 net/built-in.o
                0x00000000808a6a30                . = ALIGN (0x4)
                0x00000000808a6a30                __bss_limit = .

.bss_end        0x00000000808a6a30        0x0
 *(.__bss_end)
 .__bss_end     0x00000000808a6a30        0x0 arch/arm/lib/built-in.o
                0x00000000808a6a30                __bss_end

.dynsym         0x00000000808647d0       0x60
 *(.dynsym)
 .dynsym        0x00000000808647d0       0x60 arch/arm/cpu/armv7/start.o

.dynbss         0x0000000080864830        0x0
 *(.dynbss)
 .dynbss        0x0000000080864830        0x0 arch/arm/cpu/armv7/start.o

.dynstr         0x0000000080864830       0x2a
 *(.dynstr*)
 .dynstr        0x0000000080864830       0x2a arch/arm/cpu/armv7/start.o

.dynamic        0x000000008086485c       0x80
 *(.dynamic*)
 .dynamic       0x000000008086485c       0x80 arch/arm/cpu/armv7/start.o
                0x000000008086485c                _DYNAMIC

.gnu.hash
 *(.gnu.hash)

.plt            0x00000000808648dc        0x0
 *(.plt*)
 .plt           0x00000000808648dc        0x0 arch/arm/cpu/armv7/start.o

.interp         0x00000000808648dc       0x11
 *(.interp*)
 .interp        0x00000000808648dc       0x11 arch/arm/cpu/armv7/start.o

.gnu            0x00000000808648f0        0x0
 *(.gnu*)
 .gnu.version_d
                0x00000000808648f0        0x0 arch/arm/cpu/armv7/start.o
 .gnu.version   0x00000000808648f0        0x0 arch/arm/cpu/armv7/start.o
 .gnu.version_r
                0x00000000808648f0        0x0 arch/arm/cpu/armv7/start.o

.ARM.exidx
 *(.ARM.exidx*)
LOAD arch/arm/cpu/armv7/start.o
START GROUP
LOAD arch/arm/cpu/built-in.o
LOAD arch/arm/cpu/armv7/built-in.o
LOAD arch/arm/lib/built-in.o
LOAD board/vscom/baltos/built-in.o
LOAD cmd/built-in.o
LOAD common/built-in.o
LOAD disk/built-in.o
LOAD drivers/built-in.o
LOAD drivers/dma/built-in.o
LOAD drivers/gpio/built-in.o
LOAD drivers/i2c/built-in.o
LOAD drivers/mmc/built-in.o
LOAD drivers/mtd/built-in.o
LOAD drivers/mtd/onenand/built-in.o
LOAD drivers/mtd/spi/built-in.o
LOAD drivers/mtd/ubi/built-in.o
LOAD drivers/net/built-in.o
LOAD drivers/net/phy/built-in.o
LOAD drivers/pci/built-in.o
LOAD drivers/power/built-in.o
LOAD drivers/power/battery/built-in.o
LOAD drivers/power/fuel_gauge/built-in.o
LOAD drivers/power/mfd/built-in.o
LOAD drivers/power/pmic/built-in.o
LOAD drivers/power/regulator/built-in.o
LOAD drivers/serial/built-in.o
LOAD drivers/spi/built-in.o
LOAD drivers/usb/common/built-in.o
LOAD drivers/usb/dwc3/built-in.o
LOAD drivers/usb/emul/built-in.o
LOAD drivers/usb/eth/built-in.o
LOAD drivers/usb/gadget/built-in.o
LOAD drivers/usb/gadget/udc/built-in.o
LOAD drivers/usb/host/built-in.o
LOAD drivers/usb/musb-new/built-in.o
LOAD drivers/usb/musb/built-in.o
LOAD drivers/usb/phy/built-in.o
LOAD drivers/usb/ulpi/built-in.o
LOAD fs/built-in.o
LOAD lib/built-in.o
LOAD net/built-in.o
LOAD test/built-in.o
LOAD test/dm/built-in.o
END GROUP
LOAD arch/arm/lib/eabi_compat.o
LOAD /home/chen_7109/am335x/gcc-linaro-5.3-2016.02-x86_64_arm-linux-gnueabihf/bin/../lib/gcc/arm-linux-gnueabihf/5.3.1/libgcc.a
OUTPUT(u-boot elf32-littlearm)

.ARM.attributes
                0x0000000000000000       0x2b
 .ARM.attributes
                0x0000000000000000       0x1f arch/arm/cpu/armv7/start.o
 .ARM.attributes
                0x000000000000001f       0x2d board/vscom/baltos/built-in.o
 .ARM.attributes
                0x000000000000004c       0x2d arch/arm/cpu/armv7/built-in.o
 .ARM.attributes
                0x0000000000000079       0x2b arch/arm/lib/built-in.o
 .ARM.attributes
                0x00000000000000a4       0x2d cmd/built-in.o
 .ARM.attributes
                0x00000000000000d1       0x2d common/built-in.o
 .ARM.attributes
                0x00000000000000fe       0x2d disk/built-in.o
 .ARM.attributes
                0x000000000000012b       0x2d drivers/built-in.o
 .ARM.attributes
                0x0000000000000158       0x2d drivers/gpio/built-in.o
 .ARM.attributes
                0x0000000000000185       0x2d drivers/i2c/built-in.o
 .ARM.attributes
                0x00000000000001b2       0x2d drivers/mmc/built-in.o
 .ARM.attributes
                0x00000000000001df       0x2d drivers/mtd/built-in.o
 .ARM.attributes
                0x000000000000020c       0x2d drivers/mtd/ubi/built-in.o
 .ARM.attributes
                0x0000000000000239       0x2d drivers/net/built-in.o
 .ARM.attributes
                0x0000000000000266       0x2d drivers/net/phy/built-in.o
 .ARM.attributes
                0x0000000000000293       0x2d drivers/serial/built-in.o
 .ARM.attributes
                0x00000000000002c0       0x2d drivers/usb/gadget/built-in.o
 .ARM.attributes
                0x00000000000002ed       0x2d drivers/usb/musb-new/built-in.o
 .ARM.attributes
                0x000000000000031a       0x2d fs/built-in.o
 .ARM.attributes
                0x0000000000000347       0x2d lib/built-in.o
 .ARM.attributes
                0x0000000000000374       0x2d net/built-in.o
 .ARM.attributes
                0x00000000000003a1       0x2d test/dm/built-in.o
 .ARM.attributes
                0x00000000000003ce       0x2d arch/arm/lib/eabi_compat.o
 .ARM.attributes
                0x00000000000003fb       0x21 /home/chen_7109/am335x/gcc-linaro-5.3-2016.02-x86_64_arm-linux-gnueabihf/bin/../lib/gcc/arm-linux-gnueabihf/5.3.1/libgcc.a(_udivsi3.o)
 .ARM.attributes
                0x000000000000041c       0x21 /home/chen_7109/am335x/gcc-linaro-5.3-2016.02-x86_64_arm-linux-gnueabihf/bin/../lib/gcc/arm-linux-gnueabihf/5.3.1/libgcc.a(_divsi3.o)
 .ARM.attributes
                0x000000000000043d       0x21 /home/chen_7109/am335x/gcc-linaro-5.3-2016.02-x86_64_arm-linux-gnueabihf/bin/../lib/gcc/arm-linux-gnueabihf/5.3.1/libgcc.a(_lshrdi3.o)
 .ARM.attributes
                0x000000000000045e       0x21 /home/chen_7109/am335x/gcc-linaro-5.3-2016.02-x86_64_arm-linux-gnueabihf/bin/../lib/gcc/arm-linux-gnueabihf/5.3.1/libgcc.a(_ashldi3.o)
 .ARM.attributes
                0x000000000000047f       0x21 /home/chen_7109/am335x/gcc-linaro-5.3-2016.02-x86_64_arm-linux-gnueabihf/bin/../lib/gcc/arm-linux-gnueabihf/5.3.1/libgcc.a(_dvmd_lnx.o)

.comment        0x0000000000000000       0x2d
 .comment       0x0000000000000000       0x2d board/vscom/baltos/built-in.o
                                         0x2e (size before relaxing)
 .comment       0x000000000000002d      0x30e arch/arm/cpu/armv7/built-in.o
 .comment       0x000000000000002d      0x170 arch/arm/lib/built-in.o
 .comment       0x000000000000002d      0x75e cmd/built-in.o
 .comment       0x000000000000002d      0x6a6 common/built-in.o
 .comment       0x000000000000002d       0xb8 disk/built-in.o
 .comment       0x000000000000002d      0x33c drivers/built-in.o
 .comment       0x000000000000002d       0x5c drivers/gpio/built-in.o
 .comment       0x000000000000002d       0x5c drivers/i2c/built-in.o
 .comment       0x000000000000002d       0x8a drivers/mmc/built-in.o
 .comment       0x000000000000002d       0x8a drivers/mtd/built-in.o
 .comment       0x000000000000002d      0x228 drivers/mtd/ubi/built-in.o
 .comment       0x000000000000002d       0x5c drivers/net/built-in.o
 .comment       0x000000000000002d       0x8a drivers/net/phy/built-in.o
 .comment       0x000000000000002d       0x5c drivers/serial/built-in.o
 .comment       0x000000000000002d      0x114 drivers/usb/gadget/built-in.o
 .comment       0x000000000000002d      0x114 drivers/usb/musb-new/built-in.o
 .comment       0x000000000000002d      0x508 fs/built-in.o
 .comment       0x000000000000002d      0x958 lib/built-in.o
 .comment       0x000000000000002d      0x19e net/built-in.o
 .comment       0x000000000000002d       0x2e test/dm/built-in.o
 .comment       0x000000000000002d       0x2e arch/arm/lib/eabi_compat.o

.note.GNU-stack
                0x0000000000000000        0x0
 .note.GNU-stack
                0x0000000000000000        0x0 board/vscom/baltos/built-in.o
 .note.GNU-stack
                0x0000000000000000        0x0 arch/arm/cpu/armv7/built-in.o
 .note.GNU-stack
                0x0000000000000000        0x0 arch/arm/lib/built-in.o
 .note.GNU-stack
                0x0000000000000000        0x0 cmd/built-in.o
 .note.GNU-stack
                0x0000000000000000        0x0 common/built-in.o
 .note.GNU-stack
                0x0000000000000000        0x0 disk/built-in.o
 .note.GNU-stack
                0x0000000000000000        0x0 drivers/built-in.o
 .note.GNU-stack
                0x0000000000000000        0x0 drivers/gpio/built-in.o
 .note.GNU-stack
                0x0000000000000000        0x0 drivers/i2c/built-in.o
 .note.GNU-stack
                0x0000000000000000        0x0 drivers/mmc/built-in.o
 .note.GNU-stack
                0x0000000000000000        0x0 drivers/mtd/built-in.o
 .note.GNU-stack
                0x0000000000000000        0x0 drivers/mtd/ubi/built-in.o
 .note.GNU-stack
                0x0000000000000000        0x0 drivers/net/built-in.o
 .note.GNU-stack
                0x0000000000000000        0x0 drivers/net/phy/built-in.o
 .note.GNU-stack
                0x0000000000000000        0x0 drivers/serial/built-in.o
 .note.GNU-stack
                0x0000000000000000        0x0 drivers/usb/gadget/built-in.o
 .note.GNU-stack
                0x0000000000000000        0x0 drivers/usb/musb-new/built-in.o
 .note.GNU-stack
                0x0000000000000000        0x0 fs/built-in.o
 .note.GNU-stack
                0x0000000000000000        0x0 lib/built-in.o
 .note.GNU-stack
                0x0000000000000000        0x0 net/built-in.o
 .note.GNU-stack
                0x0000000000000000        0x0 test/dm/built-in.o
 .note.GNU-stack
                0x0000000000000000        0x0 arch/arm/lib/eabi_compat.o
 .note.GNU-stack
                0x0000000000000000        0x0 /home/chen_7109/am335x/gcc-linaro-5.3-2016.02-x86_64_arm-linux-gnueabihf/bin/../lib/gcc/arm-linux-gnueabihf/5.3.1/libgcc.a(_udivsi3.o)
 .note.GNU-stack
                0x0000000000000000        0x0 /home/chen_7109/am335x/gcc-linaro-5.3-2016.02-x86_64_arm-linux-gnueabihf/bin/../lib/gcc/arm-linux-gnueabihf/5.3.1/libgcc.a(_divsi3.o)
 .note.GNU-stack
                0x0000000000000000        0x0 /home/chen_7109/am335x/gcc-linaro-5.3-2016.02-x86_64_arm-linux-gnueabihf/bin/../lib/gcc/arm-linux-gnueabihf/5.3.1/libgcc.a(_lshrdi3.o)
 .note.GNU-stack
                0x0000000000000000        0x0 /home/chen_7109/am335x/gcc-linaro-5.3-2016.02-x86_64_arm-linux-gnueabihf/bin/../lib/gcc/arm-linux-gnueabihf/5.3.1/libgcc.a(_ashldi3.o)
 .note.GNU-stack
                0x0000000000000000        0x0 /home/chen_7109/am335x/gcc-linaro-5.3-2016.02-x86_64_arm-linux-gnueabihf/bin/../lib/gcc/arm-linux-gnueabihf/5.3.1/libgcc.a(_dvmd_lnx.o)

.debug_line     0x0000000000000000    0x33d24
 .debug_line    0x0000000000000000       0x87 arch/arm/cpu/armv7/start.o
 .debug_line    0x0000000000000087      0x253 board/vscom/baltos/built-in.o
 .debug_line    0x00000000000002da     0x18e1 arch/arm/cpu/armv7/built-in.o
 .debug_line    0x0000000000001bbb      0xd47 arch/arm/lib/built-in.o
 .debug_line    0x0000000000002902     0x6657 cmd/built-in.o
 .debug_line    0x0000000000008f59     0x7ca5 common/built-in.o
 .debug_line    0x0000000000010bfe     0x106f disk/built-in.o
 .debug_line    0x0000000000011c6d     0x2201 drivers/built-in.o
 .debug_line    0x0000000000013e6e      0x947 drivers/gpio/built-in.o
 .debug_line    0x00000000000147b5      0x5d6 drivers/i2c/built-in.o
 .debug_line    0x0000000000014d8b      0xf7f drivers/mmc/built-in.o
 .debug_line    0x0000000000015d0a      0xcab drivers/mtd/built-in.o
 .debug_line    0x00000000000169b5     0x412f drivers/mtd/ubi/built-in.o
 .debug_line    0x000000000001aae4      0x72e drivers/net/built-in.o
 .debug_line    0x000000000001b212      0x8a4 drivers/net/phy/built-in.o
 .debug_line    0x000000000001bab6      0x5ef drivers/serial/built-in.o
 .debug_line    0x000000000001c0a5     0x1ba2 drivers/usb/gadget/built-in.o
 .debug_line    0x000000000001dc47     0x28ba drivers/usb/musb-new/built-in.o
 .debug_line    0x0000000000020501     0x9b6b fs/built-in.o
 .debug_line    0x000000000002a06c     0x7860 lib/built-in.o
 .debug_line    0x00000000000318cc     0x1d8b net/built-in.o
 .debug_line    0x0000000000033657      0x126 test/dm/built-in.o
 .debug_line    0x000000000003377d      0x120 arch/arm/lib/eabi_compat.o
 .debug_line    0x000000000003389d       0xf2 /home/chen_7109/am335x/gcc-linaro-5.3-2016.02-x86_64_arm-linux-gnueabihf/bin/../lib/gcc/arm-linux-gnueabihf/5.3.1/libgcc.a(_udivsi3.o)
 .debug_line    0x000000000003398f      0x103 /home/chen_7109/am335x/gcc-linaro-5.3-2016.02-x86_64_arm-linux-gnueabihf/bin/../lib/gcc/arm-linux-gnueabihf/5.3.1/libgcc.a(_divsi3.o)
 .debug_line    0x0000000000033a92       0xde /home/chen_7109/am335x/gcc-linaro-5.3-2016.02-x86_64_arm-linux-gnueabihf/bin/../lib/gcc/arm-linux-gnueabihf/5.3.1/libgcc.a(_lshrdi3.o)
 .debug_line    0x0000000000033b70       0xde /home/chen_7109/am335x/gcc-linaro-5.3-2016.02-x86_64_arm-linux-gnueabihf/bin/../lib/gcc/arm-linux-gnueabihf/5.3.1/libgcc.a(_ashldi3.o)
 .debug_line    0x0000000000033c4e       0xd6 /home/chen_7109/am335x/gcc-linaro-5.3-2016.02-x86_64_arm-linux-gnueabihf/bin/../lib/gcc/arm-linux-gnueabihf/5.3.1/libgcc.a(_dvmd_lnx.o)

.debug_info     0x0000000000000000   0x1789c4
 .debug_info    0x0000000000000000       0x77 arch/arm/cpu/armv7/start.o
 .debug_info    0x0000000000000077     0x110e board/vscom/baltos/built-in.o
 .debug_info    0x0000000000001185     0xa4fd arch/arm/cpu/armv7/built-in.o
 .debug_info    0x000000000000b682     0x48cc arch/arm/lib/built-in.o
 .debug_info    0x000000000000ff4e    0x2ed24 cmd/built-in.o
 .debug_info    0x000000000003ec72    0x30a61 common/built-in.o
 .debug_info    0x000000000006f6d3     0x64ab disk/built-in.o
 .debug_info    0x0000000000075b7e     0xd5f5 drivers/built-in.o
 .debug_info    0x0000000000083173     0x3cee drivers/gpio/built-in.o
 .debug_info    0x0000000000086e61     0x2973 drivers/i2c/built-in.o
 .debug_info    0x00000000000897d4     0x6f02 drivers/mmc/built-in.o
 .debug_info    0x00000000000906d6     0x436d drivers/mtd/built-in.o
 .debug_info    0x0000000000094a43    0x20f81 drivers/mtd/ubi/built-in.o
 .debug_info    0x00000000000b59c4     0x44b7 drivers/net/built-in.o
 .debug_info    0x00000000000b9e7b     0x396e drivers/net/phy/built-in.o
 .debug_info    0x00000000000bd7e9     0x2de0 drivers/serial/built-in.o
 .debug_info    0x00000000000c05c9     0xad2b drivers/usb/gadget/built-in.o
 .debug_info    0x00000000000cb2f4    0x162d0 drivers/usb/musb-new/built-in.o
 .debug_info    0x00000000000e15c4    0x66f56 fs/built-in.o
 .debug_info    0x000000000014851a    0x24118 lib/built-in.o
 .debug_info    0x000000000016c632     0xb053 net/built-in.o
 .debug_info    0x0000000000177685      0x678 test/dm/built-in.o
 .debug_info    0x0000000000177cfd      0x498 arch/arm/lib/eabi_compat.o
 .debug_info    0x0000000000178195      0x1a3 /home/chen_7109/am335x/gcc-linaro-5.3-2016.02-x86_64_arm-linux-gnueabihf/bin/../lib/gcc/arm-linux-gnueabihf/5.3.1/libgcc.a(_udivsi3.o)
 .debug_info    0x0000000000178338      0x1a3 /home/chen_7109/am335x/gcc-linaro-5.3-2016.02-x86_64_arm-linux-gnueabihf/bin/../lib/gcc/arm-linux-gnueabihf/5.3.1/libgcc.a(_divsi3.o)
 .debug_info    0x00000000001784db      0x1a3 /home/chen_7109/am335x/gcc-linaro-5.3-2016.02-x86_64_arm-linux-gnueabihf/bin/../lib/gcc/arm-linux-gnueabihf/5.3.1/libgcc.a(_lshrdi3.o)
 .debug_info    0x000000000017867e      0x1a3 /home/chen_7109/am335x/gcc-linaro-5.3-2016.02-x86_64_arm-linux-gnueabihf/bin/../lib/gcc/arm-linux-gnueabihf/5.3.1/libgcc.a(_ashldi3.o)
 .debug_info    0x0000000000178821      0x1a3 /home/chen_7109/am335x/gcc-linaro-5.3-2016.02-x86_64_arm-linux-gnueabihf/bin/../lib/gcc/arm-linux-gnueabihf/5.3.1/libgcc.a(_dvmd_lnx.o)

.debug_abbrev   0x0000000000000000    0x31618
 .debug_abbrev  0x0000000000000000       0x14 arch/arm/cpu/armv7/start.o
 .debug_abbrev  0x0000000000000014      0x305 board/vscom/baltos/built-in.o
 .debug_abbrev  0x0000000000000319     0x21fc arch/arm/cpu/armv7/built-in.o
 .debug_abbrev  0x0000000000002515     0x1037 arch/arm/lib/built-in.o
 .debug_abbrev  0x000000000000354c     0x7190 cmd/built-in.o
 .debug_abbrev  0x000000000000a6dc     0x73c0 common/built-in.o
 .debug_abbrev  0x0000000000011a9c     0x102e disk/built-in.o
 .debug_abbrev  0x0000000000012aca     0x26cd drivers/built-in.o
 .debug_abbrev  0x0000000000015197      0x845 drivers/gpio/built-in.o
 .debug_abbrev  0x00000000000159dc      0x75c drivers/i2c/built-in.o
 .debug_abbrev  0x0000000000016138      0xd60 drivers/mmc/built-in.o
 .debug_abbrev  0x0000000000016e98      0xb19 drivers/mtd/built-in.o
 .debug_abbrev  0x00000000000179b1     0x376e drivers/mtd/ubi/built-in.o
 .debug_abbrev  0x000000000001b11f      0x651 drivers/net/built-in.o
 .debug_abbrev  0x000000000001b770      0x8c5 drivers/net/phy/built-in.o
 .debug_abbrev  0x000000000001c035      0x786 drivers/serial/built-in.o
 .debug_abbrev  0x000000000001c7bb     0x16a0 drivers/usb/gadget/built-in.o
 .debug_abbrev  0x000000000001de5b     0x1e26 drivers/usb/musb-new/built-in.o
 .debug_abbrev  0x000000000001fc81     0x8218 fs/built-in.o
 .debug_abbrev  0x0000000000027e99     0x74f7 lib/built-in.o
 .debug_abbrev  0x000000000002f390     0x1ea7 net/built-in.o
 .debug_abbrev  0x0000000000031237      0x1e1 test/dm/built-in.o
 .debug_abbrev  0x0000000000031418      0x19c arch/arm/lib/eabi_compat.o
 .debug_abbrev  0x00000000000315b4       0x14 /home/chen_7109/am335x/gcc-linaro-5.3-2016.02-x86_64_arm-linux-gnueabihf/bin/../lib/gcc/arm-linux-gnueabihf/5.3.1/libgcc.a(_udivsi3.o)
 .debug_abbrev  0x00000000000315c8       0x14 /home/chen_7109/am335x/gcc-linaro-5.3-2016.02-x86_64_arm-linux-gnueabihf/bin/../lib/gcc/arm-linux-gnueabihf/5.3.1/libgcc.a(_divsi3.o)
 .debug_abbrev  0x00000000000315dc       0x14 /home/chen_7109/am335x/gcc-linaro-5.3-2016.02-x86_64_arm-linux-gnueabihf/bin/../lib/gcc/arm-linux-gnueabihf/5.3.1/libgcc.a(_lshrdi3.o)
 .debug_abbrev  0x00000000000315f0       0x14 /home/chen_7109/am335x/gcc-linaro-5.3-2016.02-x86_64_arm-linux-gnueabihf/bin/../lib/gcc/arm-linux-gnueabihf/5.3.1/libgcc.a(_ashldi3.o)
 .debug_abbrev  0x0000000000031604       0x14 /home/chen_7109/am335x/gcc-linaro-5.3-2016.02-x86_64_arm-linux-gnueabihf/bin/../lib/gcc/arm-linux-gnueabihf/5.3.1/libgcc.a(_dvmd_lnx.o)

.debug_aranges  0x0000000000000000     0x61a8
 .debug_aranges
                0x0000000000000000       0x20 arch/arm/cpu/armv7/start.o
 .debug_aranges
                0x0000000000000020       0x40 board/vscom/baltos/built-in.o
 .debug_aranges
                0x0000000000000060      0x418 arch/arm/cpu/armv7/built-in.o
 .debug_aranges
                0x0000000000000478      0x268 arch/arm/lib/built-in.o
 .debug_aranges
                0x00000000000006e0      0xb18 cmd/built-in.o
 .debug_aranges
                0x00000000000011f8     0x1120 common/built-in.o
 .debug_aranges
                0x0000000000002318      0x188 disk/built-in.o
 .debug_aranges
                0x00000000000024a0      0x500 drivers/built-in.o
 .debug_aranges
                0x00000000000029a0      0x1b0 drivers/gpio/built-in.o
 .debug_aranges
                0x0000000000002b50       0xf0 drivers/i2c/built-in.o
 .debug_aranges
                0x0000000000002c40      0x1c0 drivers/mmc/built-in.o
 .debug_aranges
                0x0000000000002e00      0x218 drivers/mtd/built-in.o
 .debug_aranges
                0x0000000000003018      0x528 drivers/mtd/ubi/built-in.o
 .debug_aranges
                0x0000000000003540       0xc8 drivers/net/built-in.o
 .debug_aranges
                0x0000000000003608      0x130 drivers/net/phy/built-in.o
 .debug_aranges
                0x0000000000003738      0x130 drivers/serial/built-in.o
 .debug_aranges
                0x0000000000003868      0x310 drivers/usb/gadget/built-in.o
 .debug_aranges
                0x0000000000003b78      0x2d0 drivers/usb/musb-new/built-in.o
 .debug_aranges
                0x0000000000003e48      0xda8 fs/built-in.o
 .debug_aranges
                0x0000000000004bf0     0x10a8 lib/built-in.o
 .debug_aranges
                0x0000000000005c98      0x400 net/built-in.o
 .debug_aranges
                0x0000000000006098       0x38 test/dm/built-in.o
 .debug_aranges
                0x00000000000060d0       0x38 arch/arm/lib/eabi_compat.o
 .debug_aranges
                0x0000000000006108       0x20 /home/chen_7109/am335x/gcc-linaro-5.3-2016.02-x86_64_arm-linux-gnueabihf/bin/../lib/gcc/arm-linux-gnueabihf/5.3.1/libgcc.a(_udivsi3.o)
 .debug_aranges
                0x0000000000006128       0x20 /home/chen_7109/am335x/gcc-linaro-5.3-2016.02-x86_64_arm-linux-gnueabihf/bin/../lib/gcc/arm-linux-gnueabihf/5.3.1/libgcc.a(_divsi3.o)
 .debug_aranges
                0x0000000000006148       0x20 /home/chen_7109/am335x/gcc-linaro-5.3-2016.02-x86_64_arm-linux-gnueabihf/bin/../lib/gcc/arm-linux-gnueabihf/5.3.1/libgcc.a(_lshrdi3.o)
 .debug_aranges
                0x0000000000006168       0x20 /home/chen_7109/am335x/gcc-linaro-5.3-2016.02-x86_64_arm-linux-gnueabihf/bin/../lib/gcc/arm-linux-gnueabihf/5.3.1/libgcc.a(_ashldi3.o)
 .debug_aranges
                0x0000000000006188       0x20 /home/chen_7109/am335x/gcc-linaro-5.3-2016.02-x86_64_arm-linux-gnueabihf/bin/../lib/gcc/arm-linux-gnueabihf/5.3.1/libgcc.a(_dvmd_lnx.o)

.debug_frame    0x0000000000000000    0x11ba4
 .debug_frame   0x0000000000000000       0x8c board/vscom/baltos/built-in.o
 .debug_frame   0x000000000000008c      0x76c arch/arm/cpu/armv7/built-in.o
 .debug_frame   0x00000000000007f8      0x41c arch/arm/lib/built-in.o
 .debug_frame   0x0000000000000c14     0x1f68 cmd/built-in.o
 .debug_frame   0x0000000000002b7c     0x3394 common/built-in.o
 .debug_frame   0x0000000000005f10      0x568 disk/built-in.o
 .debug_frame   0x0000000000006478      0xb5c drivers/built-in.o
 .debug_frame   0x0000000000006fd4      0x580 drivers/gpio/built-in.o
 .debug_frame   0x0000000000007554      0x2e0 drivers/i2c/built-in.o
 .debug_frame   0x0000000000007834      0x5d8 drivers/mmc/built-in.o
 .debug_frame   0x0000000000007e0c      0x78c drivers/mtd/built-in.o
 .debug_frame   0x0000000000008598     0x1104 drivers/mtd/ubi/built-in.o
 .debug_frame   0x000000000000969c      0x270 drivers/net/built-in.o
 .debug_frame   0x000000000000990c      0x344 drivers/net/phy/built-in.o
 .debug_frame   0x0000000000009c50      0x320 drivers/serial/built-in.o
 .debug_frame   0x0000000000009f70      0x878 drivers/usb/gadget/built-in.o
 .debug_frame   0x000000000000a7e8      0x91c drivers/usb/musb-new/built-in.o
 .debug_frame   0x000000000000b104     0x2e64 fs/built-in.o
 .debug_frame   0x000000000000df68     0x2f20 lib/built-in.o
 .debug_frame   0x0000000000010e88      0xbfc net/built-in.o
 .debug_frame   0x0000000000011a84       0x78 test/dm/built-in.o
 .debug_frame   0x0000000000011afc       0x68 arch/arm/lib/eabi_compat.o
 .debug_frame   0x0000000000011b64       0x20 /home/chen_7109/am335x/gcc-linaro-5.3-2016.02-x86_64_arm-linux-gnueabihf/bin/../lib/gcc/arm-linux-gnueabihf/5.3.1/libgcc.a(_udivsi3.o)
 .debug_frame   0x0000000000011b84       0x20 /home/chen_7109/am335x/gcc-linaro-5.3-2016.02-x86_64_arm-linux-gnueabihf/bin/../lib/gcc/arm-linux-gnueabihf/5.3.1/libgcc.a(_divsi3.o)

.debug_str      0x0000000000000000    0x1f2bf
 .debug_str     0x0000000000000000      0xa78 board/vscom/baltos/built-in.o
                                        0xc21 (size before relaxing)
 .debug_str     0x0000000000000a78     0x2cb1 arch/arm/cpu/armv7/built-in.o
                                       0x83be (size before relaxing)
 .debug_str     0x0000000000003729     0x130d arch/arm/lib/built-in.o
                                       0x3def (size before relaxing)
 .debug_str     0x0000000000004a36     0x52d8 cmd/built-in.o
                                      0x18830 (size before relaxing)
 .debug_str     0x0000000000009d0e     0x400a common/built-in.o
                                      0x1c386 (size before relaxing)
 .debug_str     0x000000000000dd18      0x8e9 disk/built-in.o
                                       0x2a5a (size before relaxing)
 .debug_str     0x000000000000e601     0x106b drivers/built-in.o
                                       0xab21 (size before relaxing)
 .debug_str     0x000000000000f66c      0x4b5 drivers/gpio/built-in.o
                                       0x2176 (size before relaxing)
 .debug_str     0x000000000000fb21      0x279 drivers/i2c/built-in.o
                                       0x10a9 (size before relaxing)
 .debug_str     0x000000000000fd9a      0x663 drivers/mmc/built-in.o
                                       0x2986 (size before relaxing)
 .debug_str     0x00000000000103fd      0x537 drivers/mtd/built-in.o
                                       0x1c1b (size before relaxing)
 .debug_str     0x0000000000010934     0x14eb drivers/mtd/ubi/built-in.o
                                       0xda48 (size before relaxing)
 .debug_str     0x0000000000011e1f      0x6fd drivers/net/built-in.o
                                       0x24fb (size before relaxing)
 .debug_str     0x000000000001251c      0x31f drivers/net/phy/built-in.o
                                       0x1f23 (size before relaxing)
 .debug_str     0x000000000001283b      0x3c4 drivers/serial/built-in.o
                                       0x1e65 (size before relaxing)
 .debug_str     0x0000000000012bff     0x1838 drivers/usb/gadget/built-in.o
                                       0x4f16 (size before relaxing)
 .debug_str     0x0000000000014437     0x15a1 drivers/usb/musb-new/built-in.o
                                       0xa0a9 (size before relaxing)
 .debug_str     0x00000000000159d8     0x56d6 fs/built-in.o
                                      0x2db1d (size before relaxing)
 .debug_str     0x000000000001b0ae     0x2ec4 lib/built-in.o
                                      0x14c96 (size before relaxing)
 .debug_str     0x000000000001df72     0x1271 net/built-in.o
                                       0x7802 (size before relaxing)
 .debug_str     0x000000000001f1e3       0x7c test/dm/built-in.o
                                        0x569 (size before relaxing)
 .debug_str     0x000000000001f25f       0x60 arch/arm/lib/eabi_compat.o
                                        0x4a9 (size before relaxing)

.debug_loc      0x0000000000000000    0xadd80
 .debug_loc     0x0000000000000000      0x289 board/vscom/baltos/built-in.o
 .debug_loc     0x0000000000000289     0x213c arch/arm/cpu/armv7/built-in.o
 .debug_loc     0x00000000000023c5      0xa2c arch/arm/lib/built-in.o
 .debug_loc     0x0000000000002df1    0x15193 cmd/built-in.o
 .debug_loc     0x0000000000017f84    0x17e6a common/built-in.o
 .debug_loc     0x000000000002fdee     0x2e4d disk/built-in.o
 .debug_loc     0x0000000000032c3b     0x425b drivers/built-in.o
 .debug_loc     0x0000000000036e96     0x1c09 drivers/gpio/built-in.o
 .debug_loc     0x0000000000038a9f     0x1757 drivers/i2c/built-in.o
 .debug_loc     0x000000000003a1f6     0x3839 drivers/mmc/built-in.o
 .debug_loc     0x000000000003da2f     0x2f99 drivers/mtd/built-in.o
 .debug_loc     0x00000000000409c8     0xe471 drivers/mtd/ubi/built-in.o
 .debug_loc     0x000000000004ee39     0x1d1d drivers/net/built-in.o
 .debug_loc     0x0000000000050b56     0x1916 drivers/net/phy/built-in.o
 .debug_loc     0x000000000005246c      0xc27 drivers/serial/built-in.o
 .debug_loc     0x0000000000053093     0x5694 drivers/usb/gadget/built-in.o
 .debug_loc     0x0000000000058727     0xa607 drivers/usb/musb-new/built-in.o
 .debug_loc     0x0000000000062d2e    0x24857 fs/built-in.o
 .debug_loc     0x0000000000087585    0x218f7 lib/built-in.o
 .debug_loc     0x00000000000a8e7c     0x4b9e net/built-in.o
 .debug_loc     0x00000000000ada1a      0x25e test/dm/built-in.o
 .debug_loc     0x00000000000adc78      0x108 arch/arm/lib/eabi_compat.o

.debug_ranges   0x0000000000000000     0xe608
 .debug_ranges  0x0000000000000000       0x60 board/vscom/baltos/built-in.o
 .debug_ranges  0x0000000000000060      0x540 arch/arm/cpu/armv7/built-in.o
 .debug_ranges  0x00000000000005a0      0x1d0 arch/arm/lib/built-in.o
 .debug_ranges  0x0000000000000770     0x1718 cmd/built-in.o
 .debug_ranges  0x0000000000001e88     0x1cf0 common/built-in.o
 .debug_ranges  0x0000000000003b78      0x530 disk/built-in.o
 .debug_ranges  0x00000000000040a8      0x798 drivers/built-in.o
 .debug_ranges  0x0000000000004840      0x240 drivers/gpio/built-in.o
 .debug_ranges  0x0000000000004a80      0x3a8 drivers/i2c/built-in.o
 .debug_ranges  0x0000000000004e28      0x518 drivers/mmc/built-in.o
 .debug_ranges  0x0000000000005340      0x380 drivers/mtd/built-in.o
 .debug_ranges  0x00000000000056c0     0x1618 drivers/mtd/ubi/built-in.o
 .debug_ranges  0x0000000000006cd8      0x2c8 drivers/net/built-in.o
 .debug_ranges  0x0000000000006fa0      0x310 drivers/net/phy/built-in.o
 .debug_ranges  0x00000000000072b0      0x160 drivers/serial/built-in.o
 .debug_ranges  0x0000000000007410      0x908 drivers/usb/gadget/built-in.o
 .debug_ranges  0x0000000000007d18      0xde8 drivers/usb/musb-new/built-in.o
 .debug_ranges  0x0000000000008b00     0x36e8 fs/built-in.o
 .debug_ranges  0x000000000000c1e8     0x1ba8 lib/built-in.o
 .debug_ranges  0x000000000000dd90      0x828 net/built-in.o
 .debug_ranges  0x000000000000e5b8       0x28 test/dm/built-in.o
 .debug_ranges  0x000000000000e5e0       0x28 arch/arm/lib/eabi_compat.o
